
dist/Release/production/MCU1626.production.elf:     file format elf32-avr

Sections:
Idx Name          Size      VMA       LMA       File off  Algn
  0 .data         00000004  00803800  000016ce  00001762  2**0
                  CONTENTS, ALLOC, LOAD, DATA
  1 .text         000016ce  00000000  00000000  00000094  2**1
                  CONTENTS, ALLOC, LOAD, READONLY, CODE
  2 .bss          000000dc  00803804  00803804  00001766  2**0
                  ALLOC
  3 .comment      00000030  00000000  00000000  00001766  2**0
                  CONTENTS, READONLY
  4 .note.gnu.avr.deviceinfo 00000040  00000000  00000000  00001798  2**2
                  CONTENTS, READONLY
  5 .debug_aranges 00000020  00000000  00000000  000017d8  2**3
                  CONTENTS, READONLY, DEBUGGING
  6 .debug_info   00001a5b  00000000  00000000  000017f8  2**0
                  CONTENTS, READONLY, DEBUGGING
  7 .debug_abbrev 00001872  00000000  00000000  00003253  2**0
                  CONTENTS, READONLY, DEBUGGING
  8 .debug_line   000001b2  00000000  00000000  00004ac5  2**0
                  CONTENTS, READONLY, DEBUGGING
  9 .debug_str    00000b47  00000000  00000000  00004c77  2**0
                  CONTENTS, READONLY, DEBUGGING

Disassembly of section .text:

00000000 <__vectors>:
       0:	0c 94 43 00 	jmp	0x86	; 0x86 <__ctors_end>
       4:	0c 94 60 00 	jmp	0xc0	; 0xc0 <__bad_interrupt>
       8:	0c 94 60 00 	jmp	0xc0	; 0xc0 <__bad_interrupt>
       c:	0c 94 60 00 	jmp	0xc0	; 0xc0 <__bad_interrupt>
      10:	0c 94 60 00 	jmp	0xc0	; 0xc0 <__bad_interrupt>
      14:	0c 94 60 00 	jmp	0xc0	; 0xc0 <__bad_interrupt>
      18:	0c 94 60 00 	jmp	0xc0	; 0xc0 <__bad_interrupt>
      1c:	0c 94 60 00 	jmp	0xc0	; 0xc0 <__bad_interrupt>
      20:	0c 94 c0 00 	jmp	0x180	; 0x180 <__vector_8>
      24:	0c 94 60 00 	jmp	0xc0	; 0xc0 <__bad_interrupt>
      28:	0c 94 60 00 	jmp	0xc0	; 0xc0 <__bad_interrupt>
      2c:	0c 94 60 00 	jmp	0xc0	; 0xc0 <__bad_interrupt>
      30:	0c 94 60 00 	jmp	0xc0	; 0xc0 <__bad_interrupt>
      34:	0c 94 f3 00 	jmp	0x1e6	; 0x1e6 <__vector_13>
      38:	0c 94 1a 01 	jmp	0x234	; 0x234 <__vector_14>
      3c:	0c 94 60 00 	jmp	0xc0	; 0xc0 <__bad_interrupt>
      40:	0c 94 9c 00 	jmp	0x138	; 0x138 <__vector_16>
      44:	0c 94 60 00 	jmp	0xc0	; 0xc0 <__bad_interrupt>
      48:	0c 94 60 00 	jmp	0xc0	; 0xc0 <__bad_interrupt>
      4c:	0c 94 60 00 	jmp	0xc0	; 0xc0 <__bad_interrupt>
      50:	0c 94 60 00 	jmp	0xc0	; 0xc0 <__bad_interrupt>
      54:	0c 94 60 00 	jmp	0xc0	; 0xc0 <__bad_interrupt>
      58:	0c 94 60 00 	jmp	0xc0	; 0xc0 <__bad_interrupt>
      5c:	0c 94 6d 00 	jmp	0xda	; 0xda <__vector_23>
      60:	0c 94 60 00 	jmp	0xc0	; 0xc0 <__bad_interrupt>
      64:	0c 94 60 00 	jmp	0xc0	; 0xc0 <__bad_interrupt>
      68:	0c 94 60 00 	jmp	0xc0	; 0xc0 <__bad_interrupt>
      6c:	0c 94 60 00 	jmp	0xc0	; 0xc0 <__bad_interrupt>
      70:	0c 94 60 00 	jmp	0xc0	; 0xc0 <__bad_interrupt>
      74:	0c 94 60 00 	jmp	0xc0	; 0xc0 <__bad_interrupt>
      78:	bd 01       	movw	r22, r26
      7a:	ea 01       	movw	r28, r20
      7c:	ed 01       	movw	r28, r26
      7e:	ef 01       	movw	r28, r30
      80:	f2 01       	movw	r30, r4
      82:	f6 01       	movw	r30, r12
      84:	f8 01       	movw	r30, r16

00000086 <__ctors_end>:
      86:	11 24       	eor	r1, r1
      88:	1f be       	out	0x3f, r1	; 63
      8a:	cf ef       	ldi	r28, 0xFF	; 255
      8c:	cd bf       	out	0x3d, r28	; 61
      8e:	df e3       	ldi	r29, 0x3F	; 63
      90:	de bf       	out	0x3e, r29	; 62

00000092 <__do_copy_data>:
      92:	18 e3       	ldi	r17, 0x38	; 56
      94:	a0 e0       	ldi	r26, 0x00	; 0
      96:	b8 e3       	ldi	r27, 0x38	; 56
      98:	ee ec       	ldi	r30, 0xCE	; 206
      9a:	f6 e1       	ldi	r31, 0x16	; 22
      9c:	02 c0       	rjmp	.+4      	; 0xa2 <__do_copy_data+0x10>
      9e:	05 90       	lpm	r0, Z+
      a0:	0d 92       	st	X+, r0
      a2:	a4 30       	cpi	r26, 0x04	; 4
      a4:	b1 07       	cpc	r27, r17
      a6:	d9 f7       	brne	.-10     	; 0x9e <__do_copy_data+0xc>

000000a8 <__do_clear_bss>:
      a8:	28 e3       	ldi	r18, 0x38	; 56
      aa:	a4 e0       	ldi	r26, 0x04	; 4
      ac:	b8 e3       	ldi	r27, 0x38	; 56
      ae:	01 c0       	rjmp	.+2      	; 0xb2 <.do_clear_bss_start>

000000b0 <.do_clear_bss_loop>:
      b0:	1d 92       	st	X+, r1

000000b2 <.do_clear_bss_start>:
      b2:	a0 3e       	cpi	r26, 0xE0	; 224
      b4:	b2 07       	cpc	r27, r18
      b6:	e1 f7       	brne	.-8      	; 0xb0 <.do_clear_bss_loop>
      b8:	0e 94 93 01 	call	0x326	; 0x326 <main>
      bc:	0c 94 65 0b 	jmp	0x16ca	; 0x16ca <_exit>

000000c0 <__bad_interrupt>:
      c0:	0c 94 00 00 	jmp	0	; 0x0 <__vectors>

000000c4 <debug_init>:
      c4:	e0 e0       	ldi	r30, 0x00	; 0
      c6:	f4 e0       	ldi	r31, 0x04	; 4
      c8:	80 81       	ld	r24, Z
      ca:	80 62       	ori	r24, 0x20	; 32
      cc:	80 83       	st	Z, r24
      ce:	e0 e4       	ldi	r30, 0x40	; 64
      d0:	f4 e0       	ldi	r31, 0x04	; 4
      d2:	80 81       	ld	r24, Z
      d4:	88 60       	ori	r24, 0x08	; 8
      d6:	80 83       	st	Z, r24
      d8:	08 95       	ret

000000da <__vector_23>:
      da:	1f 92       	push	r1
      dc:	0f 92       	push	r0
      de:	0f b6       	in	r0, 0x3f	; 63
      e0:	0f 92       	push	r0
      e2:	11 24       	eor	r1, r1
      e4:	2f 93       	push	r18
      e6:	3f 93       	push	r19
      e8:	4f 93       	push	r20
      ea:	5f 93       	push	r21
      ec:	6f 93       	push	r22
      ee:	7f 93       	push	r23
      f0:	8f 93       	push	r24
      f2:	9f 93       	push	r25
      f4:	af 93       	push	r26
      f6:	bf 93       	push	r27
      f8:	ef 93       	push	r30
      fa:	ff 93       	push	r31
      fc:	80 91 14 06 	lds	r24, 0x0614	; 0x800614 <__RODATA_PM_OFFSET__+0x7f8614>
     100:	20 91 15 06 	lds	r18, 0x0615	; 0x800615 <__RODATA_PM_OFFSET__+0x7f8615>
     104:	e0 e0       	ldi	r30, 0x00	; 0
     106:	f6 e0       	ldi	r31, 0x06	; 6
     108:	95 81       	ldd	r25, Z+5	; 0x05
     10a:	98 60       	ori	r25, 0x08	; 8
     10c:	95 83       	std	Z+5, r25	; 0x05
     10e:	90 e0       	ldi	r25, 0x00	; 0
     110:	92 2b       	or	r25, r18
     112:	0e 94 18 02 	call	0x430	; 0x430 <adc_setValue>
     116:	ff 91       	pop	r31
     118:	ef 91       	pop	r30
     11a:	bf 91       	pop	r27
     11c:	af 91       	pop	r26
     11e:	9f 91       	pop	r25
     120:	8f 91       	pop	r24
     122:	7f 91       	pop	r23
     124:	6f 91       	pop	r22
     126:	5f 91       	pop	r21
     128:	4f 91       	pop	r20
     12a:	3f 91       	pop	r19
     12c:	2f 91       	pop	r18
     12e:	0f 90       	pop	r0
     130:	0f be       	out	0x3f, r0	; 63
     132:	0f 90       	pop	r0
     134:	1f 90       	pop	r1
     136:	18 95       	reti

00000138 <__vector_16>:
     138:	1f 92       	push	r1
     13a:	0f 92       	push	r0
     13c:	0f b6       	in	r0, 0x3f	; 63
     13e:	0f 92       	push	r0
     140:	11 24       	eor	r1, r1
     142:	8f 93       	push	r24
     144:	80 91 c3 08 	lds	r24, 0x08C3	; 0x8008c3 <__RODATA_PM_OFFSET__+0x7f88c3>
     148:	86 ff       	sbrs	r24, 6
     14a:	14 c0       	rjmp	.+40     	; 0x174 <__vector_16+0x3c>
     14c:	80 91 25 04 	lds	r24, 0x0425	; 0x800425 <__RODATA_PM_OFFSET__+0x7f8425>
     150:	84 60       	ori	r24, 0x04	; 4
     152:	80 93 25 04 	sts	0x0425, r24	; 0x800425 <__RODATA_PM_OFFSET__+0x7f8425>
     156:	80 91 c3 08 	lds	r24, 0x08C3	; 0x8008c3 <__RODATA_PM_OFFSET__+0x7f88c3>
     15a:	80 64       	ori	r24, 0x40	; 64
     15c:	80 93 c3 08 	sts	0x08C3, r24	; 0x8008c3 <__RODATA_PM_OFFSET__+0x7f88c3>
     160:	80 91 c2 08 	lds	r24, 0x08C2	; 0x8008c2 <__RODATA_PM_OFFSET__+0x7f88c2>
     164:	8f 7b       	andi	r24, 0xBF	; 191
     166:	80 93 c2 08 	sts	0x08C2, r24	; 0x8008c2 <__RODATA_PM_OFFSET__+0x7f88c2>
     16a:	80 91 26 04 	lds	r24, 0x0426	; 0x800426 <__RODATA_PM_OFFSET__+0x7f8426>
     16e:	84 60       	ori	r24, 0x04	; 4
     170:	80 93 26 04 	sts	0x0426, r24	; 0x800426 <__RODATA_PM_OFFSET__+0x7f8426>
     174:	8f 91       	pop	r24
     176:	0f 90       	pop	r0
     178:	0f be       	out	0x3f, r0	; 63
     17a:	0f 90       	pop	r0
     17c:	1f 90       	pop	r1
     17e:	18 95       	reti

00000180 <__vector_8>:
     180:	1f 92       	push	r1
     182:	0f 92       	push	r0
     184:	0f b6       	in	r0, 0x3f	; 63
     186:	0f 92       	push	r0
     188:	11 24       	eor	r1, r1
     18a:	2f 93       	push	r18
     18c:	3f 93       	push	r19
     18e:	4f 93       	push	r20
     190:	5f 93       	push	r21
     192:	6f 93       	push	r22
     194:	7f 93       	push	r23
     196:	8f 93       	push	r24
     198:	9f 93       	push	r25
     19a:	af 93       	push	r26
     19c:	bf 93       	push	r27
     19e:	cf 93       	push	r28
     1a0:	df 93       	push	r29
     1a2:	ef 93       	push	r30
     1a4:	ff 93       	push	r31
     1a6:	c0 e0       	ldi	r28, 0x00	; 0
     1a8:	da e0       	ldi	r29, 0x0A	; 10
     1aa:	8b 85       	ldd	r24, Y+11	; 0x0b
     1ac:	81 60       	ori	r24, 0x01	; 1
     1ae:	8b 87       	std	Y+11, r24	; 0x0b
     1b0:	0e 94 b0 03 	call	0x760	; 0x760 <led_getNextEvent>
     1b4:	90 e0       	ldi	r25, 0x00	; 0
     1b6:	8e a3       	std	Y+38, r24	; 0x26
     1b8:	9f a3       	std	Y+39, r25	; 0x27
     1ba:	cb 01       	movw	r24, r22
     1bc:	0e 94 a4 03 	call	0x748	; 0x748 <led_shiftSend>
     1c0:	ff 91       	pop	r31
     1c2:	ef 91       	pop	r30
     1c4:	df 91       	pop	r29
     1c6:	cf 91       	pop	r28
     1c8:	bf 91       	pop	r27
     1ca:	af 91       	pop	r26
     1cc:	9f 91       	pop	r25
     1ce:	8f 91       	pop	r24
     1d0:	7f 91       	pop	r23
     1d2:	6f 91       	pop	r22
     1d4:	5f 91       	pop	r21
     1d6:	4f 91       	pop	r20
     1d8:	3f 91       	pop	r19
     1da:	2f 91       	pop	r18
     1dc:	0f 90       	pop	r0
     1de:	0f be       	out	0x3f, r0	; 63
     1e0:	0f 90       	pop	r0
     1e2:	1f 90       	pop	r1
     1e4:	18 95       	reti

000001e6 <__vector_13>:
     1e6:	1f 92       	push	r1
     1e8:	0f 92       	push	r0
     1ea:	0f b6       	in	r0, 0x3f	; 63
     1ec:	0f 92       	push	r0
     1ee:	11 24       	eor	r1, r1
     1f0:	6f 93       	push	r22
     1f2:	7f 93       	push	r23
     1f4:	8f 93       	push	r24
     1f6:	9f 93       	push	r25
     1f8:	ef 93       	push	r30
     1fa:	ff 93       	push	r31
     1fc:	e0 e8       	ldi	r30, 0x80	; 128
     1fe:	fa e0       	ldi	r31, 0x0A	; 10
     200:	86 81       	ldd	r24, Z+6	; 0x06
     202:	81 60       	ori	r24, 0x01	; 1
     204:	86 83       	std	Z+6, r24	; 0x06
     206:	80 91 04 38 	lds	r24, 0x3804	; 0x803804 <__data_end>
     20a:	8f 5f       	subi	r24, 0xFF	; 255
     20c:	80 93 04 38 	sts	0x3804, r24	; 0x803804 <__data_end>
     210:	80 91 04 38 	lds	r24, 0x3804	; 0x803804 <__data_end>
     214:	67 e0       	ldi	r22, 0x07	; 7
     216:	0e 94 23 09 	call	0x1246	; 0x1246 <__udivmodqi4>
     21a:	90 93 04 38 	sts	0x3804, r25	; 0x803804 <__data_end>
     21e:	ff 91       	pop	r31
     220:	ef 91       	pop	r30
     222:	9f 91       	pop	r25
     224:	8f 91       	pop	r24
     226:	7f 91       	pop	r23
     228:	6f 91       	pop	r22
     22a:	0f 90       	pop	r0
     22c:	0f be       	out	0x3f, r0	; 63
     22e:	0f 90       	pop	r0
     230:	1f 90       	pop	r1
     232:	18 95       	reti

00000234 <__vector_14>:
     234:	1f 92       	push	r1
     236:	0f 92       	push	r0
     238:	0f b6       	in	r0, 0x3f	; 63
     23a:	0f 92       	push	r0
     23c:	11 24       	eor	r1, r1
     23e:	2f 93       	push	r18
     240:	3f 93       	push	r19
     242:	4f 93       	push	r20
     244:	5f 93       	push	r21
     246:	6f 93       	push	r22
     248:	7f 93       	push	r23
     24a:	8f 93       	push	r24
     24c:	9f 93       	push	r25
     24e:	af 93       	push	r26
     250:	bf 93       	push	r27
     252:	ef 93       	push	r30
     254:	ff 93       	push	r31
     256:	80 91 ab 08 	lds	r24, 0x08AB	; 0x8008ab <__RODATA_PM_OFFSET__+0x7f88ab>
     25a:	86 ff       	sbrs	r24, 6
     25c:	14 c0       	rjmp	.+40     	; 0x286 <__vector_14+0x52>
     25e:	80 91 ab 08 	lds	r24, 0x08AB	; 0x8008ab <__RODATA_PM_OFFSET__+0x7f88ab>
     262:	83 ff       	sbrs	r24, 3
     264:	07 c0       	rjmp	.+14     	; 0x274 <__vector_14+0x40>
     266:	80 91 ab 08 	lds	r24, 0x08AB	; 0x8008ab <__RODATA_PM_OFFSET__+0x7f88ab>
     26a:	88 60       	ori	r24, 0x08	; 8
     26c:	80 93 ab 08 	sts	0x08AB, r24	; 0x8008ab <__RODATA_PM_OFFSET__+0x7f88ab>
     270:	82 e0       	ldi	r24, 0x02	; 2
     272:	46 c0       	rjmp	.+140    	; 0x300 <__vector_14+0xcc>
     274:	80 91 ab 08 	lds	r24, 0x08AB	; 0x8008ab <__RODATA_PM_OFFSET__+0x7f88ab>
     278:	80 ff       	sbrs	r24, 0
     27a:	02 c0       	rjmp	.+4      	; 0x280 <__vector_14+0x4c>
     27c:	83 e0       	ldi	r24, 0x03	; 3
     27e:	01 c0       	rjmp	.+2      	; 0x282 <__vector_14+0x4e>
     280:	82 e0       	ldi	r24, 0x02	; 2
     282:	80 93 aa 08 	sts	0x08AA, r24	; 0x8008aa <__RODATA_PM_OFFSET__+0x7f88aa>
     286:	80 91 ab 08 	lds	r24, 0x08AB	; 0x8008ab <__RODATA_PM_OFFSET__+0x7f88ab>
     28a:	87 ff       	sbrs	r24, 7
     28c:	3b c0       	rjmp	.+118    	; 0x304 <__vector_14+0xd0>
     28e:	80 91 ab 08 	lds	r24, 0x08AB	; 0x8008ab <__RODATA_PM_OFFSET__+0x7f88ab>
     292:	81 ff       	sbrs	r24, 1
     294:	30 c0       	rjmp	.+96     	; 0x2f6 <__vector_14+0xc2>
     296:	0e 94 e4 06 	call	0xdc8	; 0xdc8 <i2c_get_response>
     29a:	81 30       	cpi	r24, 0x01	; 1
     29c:	71 f0       	breq	.+28     	; 0x2ba <__vector_14+0x86>
     29e:	48 f0       	brcs	.+18     	; 0x2b2 <__vector_14+0x7e>
     2a0:	82 30       	cpi	r24, 0x02	; 2
     2a2:	c9 f0       	breq	.+50     	; 0x2d6 <__vector_14+0xa2>
     2a4:	83 30       	cpi	r24, 0x03	; 3
     2a6:	19 f5       	brne	.+70     	; 0x2ee <__vector_14+0xba>
     2a8:	0e 94 44 02 	call	0x488	; 0x488 <but_getValue>
     2ac:	80 93 ad 08 	sts	0x08AD, r24	; 0x8008ad <__RODATA_PM_OFFSET__+0x7f88ad>
     2b0:	1e c0       	rjmp	.+60     	; 0x2ee <__vector_14+0xba>
     2b2:	91 11       	cpse	r25, r1
     2b4:	15 c0       	rjmp	.+42     	; 0x2e0 <__vector_14+0xac>
     2b6:	80 e0       	ldi	r24, 0x00	; 0
     2b8:	03 c0       	rjmp	.+6      	; 0x2c0 <__vector_14+0x8c>
     2ba:	91 11       	cpse	r25, r1
     2bc:	11 c0       	rjmp	.+34     	; 0x2e0 <__vector_14+0xac>
     2be:	81 e0       	ldi	r24, 0x01	; 1
     2c0:	0e 94 0f 02 	call	0x41e	; 0x41e <adc_getValue>
     2c4:	80 93 18 38 	sts	0x3818, r24	; 0x803818 <i2c_responseValue>
     2c8:	90 93 19 38 	sts	0x3819, r25	; 0x803819 <i2c_responseValue+0x1>
     2cc:	80 91 18 38 	lds	r24, 0x3818	; 0x803818 <i2c_responseValue>
     2d0:	90 91 19 38 	lds	r25, 0x3819	; 0x803819 <i2c_responseValue+0x1>
     2d4:	0d c0       	rjmp	.+26     	; 0x2f0 <__vector_14+0xbc>
     2d6:	91 11       	cpse	r25, r1
     2d8:	03 c0       	rjmp	.+6      	; 0x2e0 <__vector_14+0xac>
     2da:	0e 94 2e 03 	call	0x65c	; 0x65c <enc_getValue>
     2de:	f2 cf       	rjmp	.-28     	; 0x2c4 <__vector_14+0x90>
     2e0:	80 91 18 38 	lds	r24, 0x3818	; 0x803818 <i2c_responseValue>
     2e4:	90 91 19 38 	lds	r25, 0x3819	; 0x803819 <i2c_responseValue+0x1>
     2e8:	90 93 ad 08 	sts	0x08AD, r25	; 0x8008ad <__RODATA_PM_OFFSET__+0x7f88ad>
     2ec:	08 c0       	rjmp	.+16     	; 0x2fe <__vector_14+0xca>
     2ee:	8b e0       	ldi	r24, 0x0B	; 11
     2f0:	80 93 ad 08 	sts	0x08AD, r24	; 0x8008ad <__RODATA_PM_OFFSET__+0x7f88ad>
     2f4:	04 c0       	rjmp	.+8      	; 0x2fe <__vector_14+0xca>
     2f6:	80 91 ad 08 	lds	r24, 0x08AD	; 0x8008ad <__RODATA_PM_OFFSET__+0x7f88ad>
     2fa:	0e 94 73 06 	call	0xce6	; 0xce6 <i2c_set_message>
     2fe:	83 e0       	ldi	r24, 0x03	; 3
     300:	80 93 aa 08 	sts	0x08AA, r24	; 0x8008aa <__RODATA_PM_OFFSET__+0x7f88aa>
     304:	ff 91       	pop	r31
     306:	ef 91       	pop	r30
     308:	bf 91       	pop	r27
     30a:	af 91       	pop	r26
     30c:	9f 91       	pop	r25
     30e:	8f 91       	pop	r24
     310:	7f 91       	pop	r23
     312:	6f 91       	pop	r22
     314:	5f 91       	pop	r21
     316:	4f 91       	pop	r20
     318:	3f 91       	pop	r19
     31a:	2f 91       	pop	r18
     31c:	0f 90       	pop	r0
     31e:	0f be       	out	0x3f, r0	; 63
     320:	0f 90       	pop	r0
     322:	1f 90       	pop	r1
     324:	18 95       	reti

00000326 <main>:
     326:	60 e0       	ldi	r22, 0x00	; 0
     328:	81 e6       	ldi	r24, 0x61	; 97
     32a:	90 e0       	ldi	r25, 0x00	; 0
     32c:	0e 94 1a 0b 	call	0x1634	; 0x1634 <ccp_write_io>
     330:	0e 94 62 00 	call	0xc4	; 0xc4 <debug_init>
     334:	0e 94 49 07 	call	0xe92	; 0xe92 <timer0_init>
     338:	0e 94 56 07 	call	0xeac	; 0xeac <timer1_init>
     33c:	0e 94 62 06 	call	0xcc4	; 0xcc4 <i2c_init>
     340:	0e 94 35 06 	call	0xc6a	; 0xc6a <led_init>
     344:	0e 94 00 03 	call	0x600	; 0x600 <but_init>
     348:	0e 94 30 02 	call	0x460	; 0x460 <adc_init>
     34c:	0e 94 76 03 	call	0x6ec	; 0x6ec <enc_init>
     350:	78 94       	sei
     352:	90 91 05 38 	lds	r25, 0x3805	; 0x803805 <counter>
     356:	80 91 04 38 	lds	r24, 0x3804	; 0x803804 <__data_end>
     35a:	98 17       	cp	r25, r24
     35c:	d1 f3       	breq	.-12     	; 0x352 <main+0x2c>
     35e:	80 91 04 38 	lds	r24, 0x3804	; 0x803804 <__data_end>
     362:	80 93 05 38 	sts	0x3805, r24	; 0x803805 <counter>
     366:	e0 91 05 38 	lds	r30, 0x3805	; 0x803805 <counter>
     36a:	f0 e0       	ldi	r31, 0x00	; 0
     36c:	e7 30       	cpi	r30, 0x07	; 7
     36e:	f1 05       	cpc	r31, r1
     370:	80 f7       	brcc	.-32     	; 0x352 <main+0x2c>
     372:	e4 5c       	subi	r30, 0xC4	; 196
     374:	ff 4f       	sbci	r31, 0xFF	; 255
     376:	0c 94 2f 09 	jmp	0x125e	; 0x125e <__tablejump2__>
     37a:	0e 94 2a 07 	call	0xe54	; 0xe54 <i2c_get_order>
     37e:	60 93 2c 38 	sts	0x382C, r22	; 0x80382c <orderStrct>
     382:	70 93 2d 38 	sts	0x382D, r23	; 0x80382d <orderStrct+0x1>
     386:	80 93 2e 38 	sts	0x382E, r24	; 0x80382e <orderStrct+0x2>
     38a:	90 93 2f 38 	sts	0x382F, r25	; 0x80382f <orderStrct+0x3>
     38e:	80 91 2c 38 	lds	r24, 0x382C	; 0x80382c <orderStrct>
     392:	40 91 2f 38 	lds	r20, 0x382F	; 0x80382f <orderStrct+0x3>
     396:	44 0f       	add	r20, r20
     398:	60 91 2e 38 	lds	r22, 0x382E	; 0x80382e <orderStrct+0x2>
     39c:	80 91 2d 38 	lds	r24, 0x382D	; 0x80382d <orderStrct+0x1>
     3a0:	90 e8       	ldi	r25, 0x80	; 128
     3a2:	69 9f       	mul	r22, r25
     3a4:	b0 01       	movw	r22, r0
     3a6:	11 24       	eor	r1, r1
     3a8:	68 2b       	or	r22, r24
     3aa:	80 91 2c 38 	lds	r24, 0x382C	; 0x80382c <orderStrct>
     3ae:	82 30       	cpi	r24, 0x02	; 2
     3b0:	59 f0       	breq	.+22     	; 0x3c8 <main+0xa2>
     3b2:	20 f4       	brcc	.+8      	; 0x3bc <main+0x96>
     3b4:	81 30       	cpi	r24, 0x01	; 1
     3b6:	69 f6       	brne	.-102    	; 0x352 <main+0x2c>
     3b8:	80 e0       	ldi	r24, 0x00	; 0
     3ba:	07 c0       	rjmp	.+14     	; 0x3ca <main+0xa4>
     3bc:	83 30       	cpi	r24, 0x03	; 3
     3be:	41 f0       	breq	.+16     	; 0x3d0 <main+0xaa>
     3c0:	84 30       	cpi	r24, 0x04	; 4
     3c2:	39 f6       	brne	.-114    	; 0x352 <main+0x2c>
     3c4:	83 e0       	ldi	r24, 0x03	; 3
     3c6:	01 c0       	rjmp	.+2      	; 0x3ca <main+0xa4>
     3c8:	81 e0       	ldi	r24, 0x01	; 1
     3ca:	0e 94 16 06 	call	0xc2c	; 0xc2c <led_updateRGB>
     3ce:	c1 cf       	rjmp	.-126    	; 0x352 <main+0x2c>
     3d0:	82 e0       	ldi	r24, 0x02	; 2
     3d2:	fb cf       	rjmp	.-10     	; 0x3ca <main+0xa4>
     3d4:	0e 94 33 03 	call	0x666	; 0x666 <enc_start>
     3d8:	bc cf       	rjmp	.-136    	; 0x352 <main+0x2c>
     3da:	80 e0       	ldi	r24, 0x00	; 0
     3dc:	04 c0       	rjmp	.+8      	; 0x3e6 <main+0xc0>
     3de:	0e 94 47 02 	call	0x48e	; 0x48e <but_start>
     3e2:	b7 cf       	rjmp	.-146    	; 0x352 <main+0x2c>
     3e4:	81 e0       	ldi	r24, 0x01	; 1
     3e6:	0e 94 fc 01 	call	0x3f8	; 0x3f8 <adc_start>
     3ea:	b3 cf       	rjmp	.-154    	; 0x352 <main+0x2c>
     3ec:	80 e0       	ldi	r24, 0x00	; 0
     3ee:	01 c0       	rjmp	.+2      	; 0x3f2 <main+0xcc>
     3f0:	81 e0       	ldi	r24, 0x01	; 1
     3f2:	0e 94 22 02 	call	0x444	; 0x444 <adc_filterValues>
     3f6:	ad cf       	rjmp	.-166    	; 0x352 <main+0x2c>

000003f8 <adc_start>:
     3f8:	88 23       	and	r24, r24
     3fa:	11 f0       	breq	.+4      	; 0x400 <__LOCK_REGION_LENGTH__>
     3fc:	98 e0       	ldi	r25, 0x08	; 8
     3fe:	01 c0       	rjmp	.+2      	; 0x402 <__LOCK_REGION_LENGTH__+0x2>
     400:	96 e0       	ldi	r25, 0x06	; 6
     402:	90 93 0c 06 	sts	0x060C, r25	; 0x80060c <__RODATA_PM_OFFSET__+0x7f860c>
     406:	92 e4       	ldi	r25, 0x42	; 66
     408:	9a 95       	dec	r25
     40a:	f1 f7       	brne	.-4      	; 0x408 <__LOCK_REGION_LENGTH__+0x8>
     40c:	00 c0       	rjmp	.+0      	; 0x40e <__LOCK_REGION_LENGTH__+0xe>
     40e:	90 91 0a 06 	lds	r25, 0x060A	; 0x80060a <__RODATA_PM_OFFSET__+0x7f860a>
     412:	91 60       	ori	r25, 0x01	; 1
     414:	90 93 0a 06 	sts	0x060A, r25	; 0x80060a <__RODATA_PM_OFFSET__+0x7f860a>
     418:	80 93 06 38 	sts	0x3806, r24	; 0x803806 <adcNumG>
     41c:	08 95       	ret

0000041e <adc_getValue>:
     41e:	e8 2f       	mov	r30, r24
     420:	f0 e0       	ldi	r31, 0x00	; 0
     422:	ee 0f       	add	r30, r30
     424:	ff 1f       	adc	r31, r31
     426:	e0 5d       	subi	r30, 0xD0	; 208
     428:	f7 4c       	sbci	r31, 0xC7	; 199
     42a:	80 81       	ld	r24, Z
     42c:	91 81       	ldd	r25, Z+1	; 0x01
     42e:	08 95       	ret

00000430 <adc_setValue>:
     430:	e0 91 06 38 	lds	r30, 0x3806	; 0x803806 <adcNumG>
     434:	f0 e0       	ldi	r31, 0x00	; 0
     436:	ee 0f       	add	r30, r30
     438:	ff 1f       	adc	r31, r31
     43a:	e9 5f       	subi	r30, 0xF9	; 249
     43c:	f7 4c       	sbci	r31, 0xC7	; 199
     43e:	80 83       	st	Z, r24
     440:	91 83       	std	Z+1, r25	; 0x01
     442:	08 95       	ret

00000444 <adc_filterValues>:
     444:	90 e0       	ldi	r25, 0x00	; 0
     446:	88 0f       	add	r24, r24
     448:	99 1f       	adc	r25, r25
     44a:	fc 01       	movw	r30, r24
     44c:	e0 5d       	subi	r30, 0xD0	; 208
     44e:	f7 4c       	sbci	r31, 0xC7	; 199
     450:	dc 01       	movw	r26, r24
     452:	a9 5f       	subi	r26, 0xF9	; 249
     454:	b7 4c       	sbci	r27, 0xC7	; 199
     456:	8d 91       	ld	r24, X+
     458:	9c 91       	ld	r25, X
     45a:	80 83       	st	Z, r24
     45c:	91 83       	std	Z+1, r25	; 0x01
     45e:	08 95       	ret

00000460 <adc_init>:
     460:	e0 e0       	ldi	r30, 0x00	; 0
     462:	f6 e0       	ldi	r31, 0x06	; 6
     464:	80 81       	ld	r24, Z
     466:	81 62       	ori	r24, 0x21	; 33
     468:	80 83       	st	Z, r24
     46a:	81 81       	ldd	r24, Z+1	; 0x01
     46c:	81 83       	std	Z+1, r24	; 0x01
     46e:	82 81       	ldd	r24, Z+2	; 0x02
     470:	80 6a       	ori	r24, 0xA0	; 160
     472:	82 83       	std	Z+2, r24	; 0x02
     474:	80 85       	ldd	r24, Z+8	; 0x08
     476:	83 60       	ori	r24, 0x03	; 3
     478:	80 87       	std	Z+8, r24	; 0x08
     47a:	82 85       	ldd	r24, Z+10	; 0x0a
     47c:	80 61       	ori	r24, 0x10	; 16
     47e:	82 87       	std	Z+10, r24	; 0x0a
     480:	84 81       	ldd	r24, Z+4	; 0x04
     482:	82 60       	ori	r24, 0x02	; 2
     484:	84 83       	std	Z+4, r24	; 0x04
     486:	08 95       	ret

00000488 <but_getValue>:
     488:	80 91 0b 38 	lds	r24, 0x380B	; 0x80380b <buttonStates>
     48c:	08 95       	ret

0000048e <but_start>:
     48e:	20 91 48 04 	lds	r18, 0x0448	; 0x800448 <__RODATA_PM_OFFSET__+0x7f8448>
     492:	80 91 0d 38 	lds	r24, 0x380D	; 0x80380d <buttonCount>
     496:	90 91 34 38 	lds	r25, 0x3834	; 0x803834 <buttons>
     49a:	23 ff       	sbrs	r18, 3
     49c:	0c c0       	rjmp	.+24     	; 0x4b6 <but_start+0x28>
     49e:	41 e0       	ldi	r20, 0x01	; 1
     4a0:	50 e0       	ldi	r21, 0x00	; 0
     4a2:	08 2e       	mov	r0, r24
     4a4:	01 c0       	rjmp	.+2      	; 0x4a8 <but_start+0x1a>
     4a6:	44 0f       	add	r20, r20
     4a8:	0a 94       	dec	r0
     4aa:	ea f7       	brpl	.-6      	; 0x4a6 <but_start+0x18>
     4ac:	40 95       	com	r20
     4ae:	49 23       	and	r20, r25
     4b0:	40 93 34 38 	sts	0x3834, r20	; 0x803834 <buttons>
     4b4:	0a c0       	rjmp	.+20     	; 0x4ca <but_start+0x3c>
     4b6:	21 e0       	ldi	r18, 0x01	; 1
     4b8:	30 e0       	ldi	r19, 0x00	; 0
     4ba:	08 2e       	mov	r0, r24
     4bc:	01 c0       	rjmp	.+2      	; 0x4c0 <but_start+0x32>
     4be:	22 0f       	add	r18, r18
     4c0:	0a 94       	dec	r0
     4c2:	ea f7       	brpl	.-6      	; 0x4be <but_start+0x30>
     4c4:	29 2b       	or	r18, r25
     4c6:	20 93 34 38 	sts	0x3834, r18	; 0x803834 <buttons>
     4ca:	90 91 34 38 	lds	r25, 0x3834	; 0x803834 <buttons>
     4ce:	91 11       	cpse	r25, r1
     4d0:	04 c0       	rjmp	.+8      	; 0x4da <but_start+0x4c>
     4d2:	90 91 0c 38 	lds	r25, 0x380C	; 0x80380c <buttonStatesNew>
     4d6:	9e 7f       	andi	r25, 0xFE	; 254
     4d8:	05 c0       	rjmp	.+10     	; 0x4e4 <but_start+0x56>
     4da:	9f 3f       	cpi	r25, 0xFF	; 255
     4dc:	29 f4       	brne	.+10     	; 0x4e8 <but_start+0x5a>
     4de:	90 91 0c 38 	lds	r25, 0x380C	; 0x80380c <buttonStatesNew>
     4e2:	91 60       	ori	r25, 0x01	; 1
     4e4:	90 93 0c 38 	sts	0x380C, r25	; 0x80380c <buttonStatesNew>
     4e8:	20 91 08 04 	lds	r18, 0x0408	; 0x800408 <__RODATA_PM_OFFSET__+0x7f8408>
     4ec:	90 91 35 38 	lds	r25, 0x3835	; 0x803835 <buttons+0x1>
     4f0:	24 ff       	sbrs	r18, 4
     4f2:	0c c0       	rjmp	.+24     	; 0x50c <but_start+0x7e>
     4f4:	41 e0       	ldi	r20, 0x01	; 1
     4f6:	50 e0       	ldi	r21, 0x00	; 0
     4f8:	08 2e       	mov	r0, r24
     4fa:	01 c0       	rjmp	.+2      	; 0x4fe <but_start+0x70>
     4fc:	44 0f       	add	r20, r20
     4fe:	0a 94       	dec	r0
     500:	ea f7       	brpl	.-6      	; 0x4fc <but_start+0x6e>
     502:	40 95       	com	r20
     504:	49 23       	and	r20, r25
     506:	40 93 35 38 	sts	0x3835, r20	; 0x803835 <buttons+0x1>
     50a:	0a c0       	rjmp	.+20     	; 0x520 <but_start+0x92>
     50c:	21 e0       	ldi	r18, 0x01	; 1
     50e:	30 e0       	ldi	r19, 0x00	; 0
     510:	08 2e       	mov	r0, r24
     512:	01 c0       	rjmp	.+2      	; 0x516 <but_start+0x88>
     514:	22 0f       	add	r18, r18
     516:	0a 94       	dec	r0
     518:	ea f7       	brpl	.-6      	; 0x514 <but_start+0x86>
     51a:	29 2b       	or	r18, r25
     51c:	20 93 35 38 	sts	0x3835, r18	; 0x803835 <buttons+0x1>
     520:	90 91 35 38 	lds	r25, 0x3835	; 0x803835 <buttons+0x1>
     524:	91 11       	cpse	r25, r1
     526:	04 c0       	rjmp	.+8      	; 0x530 <but_start+0xa2>
     528:	90 91 0c 38 	lds	r25, 0x380C	; 0x80380c <buttonStatesNew>
     52c:	9d 7f       	andi	r25, 0xFD	; 253
     52e:	05 c0       	rjmp	.+10     	; 0x53a <but_start+0xac>
     530:	9f 3f       	cpi	r25, 0xFF	; 255
     532:	29 f4       	brne	.+10     	; 0x53e <but_start+0xb0>
     534:	90 91 0c 38 	lds	r25, 0x380C	; 0x80380c <buttonStatesNew>
     538:	92 60       	ori	r25, 0x02	; 2
     53a:	90 93 0c 38 	sts	0x380C, r25	; 0x80380c <buttonStatesNew>
     53e:	20 91 48 04 	lds	r18, 0x0448	; 0x800448 <__RODATA_PM_OFFSET__+0x7f8448>
     542:	90 91 36 38 	lds	r25, 0x3836	; 0x803836 <buttons+0x2>
     546:	20 ff       	sbrs	r18, 0
     548:	0c c0       	rjmp	.+24     	; 0x562 <but_start+0xd4>
     54a:	41 e0       	ldi	r20, 0x01	; 1
     54c:	50 e0       	ldi	r21, 0x00	; 0
     54e:	08 2e       	mov	r0, r24
     550:	01 c0       	rjmp	.+2      	; 0x554 <but_start+0xc6>
     552:	44 0f       	add	r20, r20
     554:	0a 94       	dec	r0
     556:	ea f7       	brpl	.-6      	; 0x552 <but_start+0xc4>
     558:	40 95       	com	r20
     55a:	49 23       	and	r20, r25
     55c:	40 93 36 38 	sts	0x3836, r20	; 0x803836 <buttons+0x2>
     560:	0a c0       	rjmp	.+20     	; 0x576 <but_start+0xe8>
     562:	21 e0       	ldi	r18, 0x01	; 1
     564:	30 e0       	ldi	r19, 0x00	; 0
     566:	08 2e       	mov	r0, r24
     568:	01 c0       	rjmp	.+2      	; 0x56c <but_start+0xde>
     56a:	22 0f       	add	r18, r18
     56c:	0a 94       	dec	r0
     56e:	ea f7       	brpl	.-6      	; 0x56a <but_start+0xdc>
     570:	29 2b       	or	r18, r25
     572:	20 93 36 38 	sts	0x3836, r18	; 0x803836 <buttons+0x2>
     576:	90 91 36 38 	lds	r25, 0x3836	; 0x803836 <buttons+0x2>
     57a:	91 11       	cpse	r25, r1
     57c:	04 c0       	rjmp	.+8      	; 0x586 <but_start+0xf8>
     57e:	90 91 0c 38 	lds	r25, 0x380C	; 0x80380c <buttonStatesNew>
     582:	9b 7f       	andi	r25, 0xFB	; 251
     584:	05 c0       	rjmp	.+10     	; 0x590 <but_start+0x102>
     586:	9f 3f       	cpi	r25, 0xFF	; 255
     588:	29 f4       	brne	.+10     	; 0x594 <but_start+0x106>
     58a:	90 91 0c 38 	lds	r25, 0x380C	; 0x80380c <buttonStatesNew>
     58e:	94 60       	ori	r25, 0x04	; 4
     590:	90 93 0c 38 	sts	0x380C, r25	; 0x80380c <buttonStatesNew>
     594:	20 91 28 04 	lds	r18, 0x0428	; 0x800428 <__RODATA_PM_OFFSET__+0x7f8428>
     598:	90 91 37 38 	lds	r25, 0x3837	; 0x803837 <buttons+0x3>
     59c:	24 ff       	sbrs	r18, 4
     59e:	0c c0       	rjmp	.+24     	; 0x5b8 <but_start+0x12a>
     5a0:	41 e0       	ldi	r20, 0x01	; 1
     5a2:	50 e0       	ldi	r21, 0x00	; 0
     5a4:	08 2e       	mov	r0, r24
     5a6:	01 c0       	rjmp	.+2      	; 0x5aa <but_start+0x11c>
     5a8:	44 0f       	add	r20, r20
     5aa:	0a 94       	dec	r0
     5ac:	ea f7       	brpl	.-6      	; 0x5a8 <but_start+0x11a>
     5ae:	40 95       	com	r20
     5b0:	49 23       	and	r20, r25
     5b2:	40 93 37 38 	sts	0x3837, r20	; 0x803837 <buttons+0x3>
     5b6:	0a c0       	rjmp	.+20     	; 0x5cc <but_start+0x13e>
     5b8:	21 e0       	ldi	r18, 0x01	; 1
     5ba:	30 e0       	ldi	r19, 0x00	; 0
     5bc:	08 2e       	mov	r0, r24
     5be:	01 c0       	rjmp	.+2      	; 0x5c2 <but_start+0x134>
     5c0:	22 0f       	add	r18, r18
     5c2:	0a 94       	dec	r0
     5c4:	ea f7       	brpl	.-6      	; 0x5c0 <but_start+0x132>
     5c6:	29 2b       	or	r18, r25
     5c8:	20 93 37 38 	sts	0x3837, r18	; 0x803837 <buttons+0x3>
     5cc:	90 91 37 38 	lds	r25, 0x3837	; 0x803837 <buttons+0x3>
     5d0:	91 11       	cpse	r25, r1
     5d2:	04 c0       	rjmp	.+8      	; 0x5dc <but_start+0x14e>
     5d4:	90 91 0c 38 	lds	r25, 0x380C	; 0x80380c <buttonStatesNew>
     5d8:	97 7f       	andi	r25, 0xF7	; 247
     5da:	05 c0       	rjmp	.+10     	; 0x5e6 <but_start+0x158>
     5dc:	9f 3f       	cpi	r25, 0xFF	; 255
     5de:	29 f4       	brne	.+10     	; 0x5ea <but_start+0x15c>
     5e0:	90 91 0c 38 	lds	r25, 0x380C	; 0x80380c <buttonStatesNew>
     5e4:	98 60       	ori	r25, 0x08	; 8
     5e6:	90 93 0c 38 	sts	0x380C, r25	; 0x80380c <buttonStatesNew>
     5ea:	8f 5f       	subi	r24, 0xFF	; 255
     5ec:	87 70       	andi	r24, 0x07	; 7
     5ee:	80 93 0d 38 	sts	0x380D, r24	; 0x80380d <buttonCount>
     5f2:	f8 94       	cli
     5f4:	80 91 0c 38 	lds	r24, 0x380C	; 0x80380c <buttonStatesNew>
     5f8:	80 93 0b 38 	sts	0x380B, r24	; 0x80380b <buttonStates>
     5fc:	78 94       	sei
     5fe:	08 95       	ret

00000600 <but_init>:
     600:	e4 e3       	ldi	r30, 0x34	; 52
     602:	f8 e3       	ldi	r31, 0x38	; 56
     604:	10 82       	st	Z, r1
     606:	11 82       	std	Z+1, r1	; 0x01
     608:	12 82       	std	Z+2, r1	; 0x02
     60a:	13 82       	std	Z+3, r1	; 0x03
     60c:	e0 e4       	ldi	r30, 0x40	; 64
     60e:	f4 e0       	ldi	r31, 0x04	; 4
     610:	80 81       	ld	r24, Z
     612:	87 7f       	andi	r24, 0xF7	; 247
     614:	80 83       	st	Z, r24
     616:	83 89       	ldd	r24, Z+19	; 0x13
     618:	88 60       	ori	r24, 0x08	; 8
     61a:	83 8b       	std	Z+19, r24	; 0x13
     61c:	a0 e0       	ldi	r26, 0x00	; 0
     61e:	b4 e0       	ldi	r27, 0x04	; 4
     620:	8c 91       	ld	r24, X
     622:	8f 7e       	andi	r24, 0xEF	; 239
     624:	8c 93       	st	X, r24
     626:	54 96       	adiw	r26, 0x14	; 20
     628:	8c 91       	ld	r24, X
     62a:	54 97       	sbiw	r26, 0x14	; 20
     62c:	88 60       	ori	r24, 0x08	; 8
     62e:	54 96       	adiw	r26, 0x14	; 20
     630:	8c 93       	st	X, r24
     632:	80 81       	ld	r24, Z
     634:	8e 7f       	andi	r24, 0xFE	; 254
     636:	80 83       	st	Z, r24
     638:	80 89       	ldd	r24, Z+16	; 0x10
     63a:	88 60       	ori	r24, 0x08	; 8
     63c:	80 8b       	std	Z+16, r24	; 0x10
     63e:	e0 e2       	ldi	r30, 0x20	; 32
     640:	f4 e0       	ldi	r31, 0x04	; 4
     642:	80 81       	ld	r24, Z
     644:	8f 7e       	andi	r24, 0xEF	; 239
     646:	80 83       	st	Z, r24
     648:	84 89       	ldd	r24, Z+20	; 0x14
     64a:	88 60       	ori	r24, 0x08	; 8
     64c:	84 8b       	std	Z+20, r24	; 0x14
     64e:	87 e8       	ldi	r24, 0x87	; 135
     650:	93 e1       	ldi	r25, 0x13	; 19
     652:	01 97       	sbiw	r24, 0x01	; 1
     654:	f1 f7       	brne	.-4      	; 0x652 <but_init+0x52>
     656:	00 c0       	rjmp	.+0      	; 0x658 <but_init+0x58>
     658:	00 00       	nop
     65a:	08 95       	ret

0000065c <enc_getValue>:
     65c:	80 91 0f 38 	lds	r24, 0x380F	; 0x80380f <enc_val>
     660:	90 91 10 38 	lds	r25, 0x3810	; 0x803810 <enc_val+0x1>
     664:	08 95       	ret

00000666 <enc_start>:
     666:	80 91 48 04 	lds	r24, 0x0448	; 0x800448 <__RODATA_PM_OFFSET__+0x7f8448>
     66a:	81 ff       	sbrs	r24, 1
     66c:	02 c0       	rjmp	.+4      	; 0x672 <enc_start+0xc>
     66e:	93 e0       	ldi	r25, 0x03	; 3
     670:	01 c0       	rjmp	.+2      	; 0x674 <enc_start+0xe>
     672:	90 e0       	ldi	r25, 0x00	; 0
     674:	80 91 28 04 	lds	r24, 0x0428	; 0x800428 <__RODATA_PM_OFFSET__+0x7f8428>
     678:	83 ff       	sbrs	r24, 3
     67a:	02 c0       	rjmp	.+4      	; 0x680 <enc_start+0x1a>
     67c:	81 e0       	ldi	r24, 0x01	; 1
     67e:	98 27       	eor	r25, r24
     680:	80 91 0e 38 	lds	r24, 0x380E	; 0x80380e <last>
     684:	89 1b       	sub	r24, r25
     686:	80 ff       	sbrs	r24, 0
     688:	09 c0       	rjmp	.+18     	; 0x69c <enc_start+0x36>
     68a:	90 93 0e 38 	sts	0x380E, r25	; 0x80380e <last>
     68e:	90 91 38 38 	lds	r25, 0x3838	; 0x803838 <enc_delta>
     692:	91 50       	subi	r25, 0x01	; 1
     694:	82 70       	andi	r24, 0x02	; 2
     696:	89 0f       	add	r24, r25
     698:	80 93 38 38 	sts	0x3838, r24	; 0x803838 <enc_delta>
     69c:	20 91 38 38 	lds	r18, 0x3838	; 0x803838 <enc_delta>
     6a0:	22 23       	and	r18, r18
     6a2:	19 f1       	breq	.+70     	; 0x6ea <enc_start+0x84>
     6a4:	80 91 11 38 	lds	r24, 0x3811	; 0x803811 <enc_valNew>
     6a8:	90 91 12 38 	lds	r25, 0x3812	; 0x803812 <enc_valNew+0x1>
     6ac:	82 0f       	add	r24, r18
     6ae:	91 1d       	adc	r25, r1
     6b0:	27 fd       	sbrc	r18, 7
     6b2:	9a 95       	dec	r25
     6b4:	89 36       	cpi	r24, 0x69	; 105
     6b6:	21 e0       	ldi	r18, 0x01	; 1
     6b8:	92 07       	cpc	r25, r18
     6ba:	1c f0       	brlt	.+6      	; 0x6c2 <enc_start+0x5c>
     6bc:	88 56       	subi	r24, 0x68	; 104
     6be:	91 40       	sbci	r25, 0x01	; 1
     6c0:	04 c0       	rjmp	.+8      	; 0x6ca <enc_start+0x64>
     6c2:	97 ff       	sbrs	r25, 7
     6c4:	02 c0       	rjmp	.+4      	; 0x6ca <enc_start+0x64>
     6c6:	88 59       	subi	r24, 0x98	; 152
     6c8:	9e 4f       	sbci	r25, 0xFE	; 254
     6ca:	80 93 11 38 	sts	0x3811, r24	; 0x803811 <enc_valNew>
     6ce:	90 93 12 38 	sts	0x3812, r25	; 0x803812 <enc_valNew+0x1>
     6d2:	10 92 38 38 	sts	0x3838, r1	; 0x803838 <enc_delta>
     6d6:	f8 94       	cli
     6d8:	80 91 11 38 	lds	r24, 0x3811	; 0x803811 <enc_valNew>
     6dc:	90 91 12 38 	lds	r25, 0x3812	; 0x803812 <enc_valNew+0x1>
     6e0:	80 93 0f 38 	sts	0x380F, r24	; 0x80380f <enc_val>
     6e4:	90 93 10 38 	sts	0x3810, r25	; 0x803810 <enc_val+0x1>
     6e8:	78 94       	sei
     6ea:	08 95       	ret

000006ec <enc_init>:
     6ec:	80 91 40 04 	lds	r24, 0x0440	; 0x800440 <__RODATA_PM_OFFSET__+0x7f8440>
     6f0:	8d 7f       	andi	r24, 0xFD	; 253
     6f2:	80 93 40 04 	sts	0x0440, r24	; 0x800440 <__RODATA_PM_OFFSET__+0x7f8440>
     6f6:	80 91 51 04 	lds	r24, 0x0451	; 0x800451 <__RODATA_PM_OFFSET__+0x7f8451>
     6fa:	88 60       	ori	r24, 0x08	; 8
     6fc:	80 93 51 04 	sts	0x0451, r24	; 0x800451 <__RODATA_PM_OFFSET__+0x7f8451>
     700:	80 91 20 04 	lds	r24, 0x0420	; 0x800420 <__RODATA_PM_OFFSET__+0x7f8420>
     704:	87 7f       	andi	r24, 0xF7	; 247
     706:	80 93 20 04 	sts	0x0420, r24	; 0x800420 <__RODATA_PM_OFFSET__+0x7f8420>
     70a:	80 91 33 04 	lds	r24, 0x0433	; 0x800433 <__RODATA_PM_OFFSET__+0x7f8433>
     70e:	88 60       	ori	r24, 0x08	; 8
     710:	80 93 33 04 	sts	0x0433, r24	; 0x800433 <__RODATA_PM_OFFSET__+0x7f8433>
     714:	80 91 48 04 	lds	r24, 0x0448	; 0x800448 <__RODATA_PM_OFFSET__+0x7f8448>
     718:	81 ff       	sbrs	r24, 1
     71a:	02 c0       	rjmp	.+4      	; 0x720 <enc_init+0x34>
     71c:	83 e0       	ldi	r24, 0x03	; 3
     71e:	01 c0       	rjmp	.+2      	; 0x722 <enc_init+0x36>
     720:	80 e0       	ldi	r24, 0x00	; 0
     722:	90 91 28 04 	lds	r25, 0x0428	; 0x800428 <__RODATA_PM_OFFSET__+0x7f8428>
     726:	93 ff       	sbrs	r25, 3
     728:	02 c0       	rjmp	.+4      	; 0x72e <enc_init+0x42>
     72a:	91 e0       	ldi	r25, 0x01	; 1
     72c:	89 27       	eor	r24, r25
     72e:	80 93 0e 38 	sts	0x380E, r24	; 0x80380e <last>
     732:	10 92 38 38 	sts	0x3838, r1	; 0x803838 <enc_delta>
     736:	08 95       	ret

00000738 <led_Compare>:
     738:	fc 01       	movw	r30, r24
     73a:	83 81       	ldd	r24, Z+3	; 0x03
     73c:	90 e0       	ldi	r25, 0x00	; 0
     73e:	fb 01       	movw	r30, r22
     740:	23 81       	ldd	r18, Z+3	; 0x03
     742:	82 1b       	sub	r24, r18
     744:	91 09       	sbc	r25, r1
     746:	08 95       	ret

00000748 <led_shiftSend>:
     748:	20 91 c3 08 	lds	r18, 0x08C3	; 0x8008c3 <__RODATA_PM_OFFSET__+0x7f88c3>
     74c:	25 ff       	sbrs	r18, 5
     74e:	07 c0       	rjmp	.+14     	; 0x75e <led_shiftSend+0x16>
     750:	20 e4       	ldi	r18, 0x40	; 64
     752:	20 93 c2 08 	sts	0x08C2, r18	; 0x8008c2 <__RODATA_PM_OFFSET__+0x7f88c2>
     756:	90 93 c4 08 	sts	0x08C4, r25	; 0x8008c4 <__RODATA_PM_OFFSET__+0x7f88c4>
     75a:	80 93 c4 08 	sts	0x08C4, r24	; 0x8008c4 <__RODATA_PM_OFFSET__+0x7f88c4>
     75e:	08 95       	ret

00000760 <led_getNextEvent>:
     760:	80 91 13 38 	lds	r24, 0x3813	; 0x803813 <isNewLedEventReady>
     764:	88 23       	and	r24, r24
     766:	31 f1       	breq	.+76     	; 0x7b4 <led_getNextEvent+0x54>
     768:	80 91 14 38 	lds	r24, 0x3814	; 0x803814 <iLedEvent>
     76c:	81 11       	cpse	r24, r1
     76e:	22 c0       	rjmp	.+68     	; 0x7b4 <led_getNextEvent+0x54>
     770:	80 e0       	ldi	r24, 0x00	; 0
     772:	90 e0       	ldi	r25, 0x00	; 0
     774:	20 91 01 38 	lds	r18, 0x3801	; 0x803801 <nLedEventUpdate>
     778:	30 e0       	ldi	r19, 0x00	; 0
     77a:	82 17       	cp	r24, r18
     77c:	93 07       	cpc	r25, r19
     77e:	a4 f4       	brge	.+40     	; 0x7a8 <led_getNextEvent+0x48>
     780:	fc 01       	movw	r30, r24
     782:	ee 0f       	add	r30, r30
     784:	ff 1f       	adc	r31, r31
     786:	e8 0f       	add	r30, r24
     788:	f9 1f       	adc	r31, r25
     78a:	df 01       	movw	r26, r30
     78c:	a7 5c       	subi	r26, 0xC7	; 199
     78e:	b7 4c       	sbci	r27, 0xC7	; 199
     790:	2d 91       	ld	r18, X+
     792:	3c 91       	ld	r19, X
     794:	11 97       	sbiw	r26, 0x01	; 1
     796:	e3 5a       	subi	r30, 0xA3	; 163
     798:	f7 4c       	sbci	r31, 0xC7	; 199
     79a:	20 83       	st	Z, r18
     79c:	31 83       	std	Z+1, r19	; 0x01
     79e:	12 96       	adiw	r26, 0x02	; 2
     7a0:	2c 91       	ld	r18, X
     7a2:	22 83       	std	Z+2, r18	; 0x02
     7a4:	01 96       	adiw	r24, 0x01	; 1
     7a6:	e6 cf       	rjmp	.-52     	; 0x774 <led_getNextEvent+0x14>
     7a8:	80 91 01 38 	lds	r24, 0x3801	; 0x803801 <nLedEventUpdate>
     7ac:	80 93 00 38 	sts	0x3800, r24	; 0x803800 <__DATA_REGION_ORIGIN__>
     7b0:	10 92 13 38 	sts	0x3813, r1	; 0x803813 <isNewLedEventReady>
     7b4:	80 91 14 38 	lds	r24, 0x3814	; 0x803814 <iLedEvent>
     7b8:	90 e0       	ldi	r25, 0x00	; 0
     7ba:	fc 01       	movw	r30, r24
     7bc:	ee 0f       	add	r30, r30
     7be:	ff 1f       	adc	r31, r31
     7c0:	8e 0f       	add	r24, r30
     7c2:	9f 1f       	adc	r25, r31
     7c4:	fc 01       	movw	r30, r24
     7c6:	e3 5a       	subi	r30, 0xA3	; 163
     7c8:	f7 4c       	sbci	r31, 0xC7	; 199
     7ca:	20 81       	ld	r18, Z
     7cc:	31 81       	ldd	r19, Z+1	; 0x01
     7ce:	42 81       	ldd	r20, Z+2	; 0x02
     7d0:	80 91 14 38 	lds	r24, 0x3814	; 0x803814 <iLedEvent>
     7d4:	8f 5f       	subi	r24, 0xFF	; 255
     7d6:	80 93 14 38 	sts	0x3814, r24	; 0x803814 <iLedEvent>
     7da:	60 91 00 38 	lds	r22, 0x3800	; 0x803800 <__DATA_REGION_ORIGIN__>
     7de:	80 91 14 38 	lds	r24, 0x3814	; 0x803814 <iLedEvent>
     7e2:	0e 94 23 09 	call	0x1246	; 0x1246 <__udivmodqi4>
     7e6:	90 93 14 38 	sts	0x3814, r25	; 0x803814 <iLedEvent>
     7ea:	84 2f       	mov	r24, r20
     7ec:	b9 01       	movw	r22, r18
     7ee:	08 95       	ret

000007f0 <led_hsvToRGB>:
     7f0:	4f 92       	push	r4
     7f2:	5f 92       	push	r5
     7f4:	6f 92       	push	r6
     7f6:	7f 92       	push	r7
     7f8:	8f 92       	push	r8
     7fa:	9f 92       	push	r9
     7fc:	af 92       	push	r10
     7fe:	bf 92       	push	r11
     800:	ef 92       	push	r14
     802:	ff 92       	push	r15
     804:	0f 93       	push	r16
     806:	1f 93       	push	r17
     808:	cf 93       	push	r28
     80a:	7c 01       	movw	r14, r24
     80c:	2a 01       	movw	r4, r20
     80e:	3b 01       	movw	r6, r22
     810:	c2 2f       	mov	r28, r18
     812:	2b e3       	ldi	r18, 0x3B	; 59
     814:	39 e8       	ldi	r19, 0x89	; 137
     816:	48 e8       	ldi	r20, 0x88	; 136
     818:	5c e3       	ldi	r21, 0x3C	; 60
     81a:	c3 01       	movw	r24, r6
     81c:	b2 01       	movw	r22, r4
     81e:	0e 94 b6 08 	call	0x116c	; 0x116c <__mulsf3>
     822:	4b 01       	movw	r8, r22
     824:	5c 01       	movw	r10, r24
     826:	20 e0       	ldi	r18, 0x00	; 0
     828:	30 e0       	ldi	r19, 0x00	; 0
     82a:	40 e7       	ldi	r20, 0x70	; 112
     82c:	52 e4       	ldi	r21, 0x42	; 66
     82e:	c3 01       	movw	r24, r6
     830:	b2 01       	movw	r22, r4
     832:	0e 94 d0 07 	call	0xfa0	; 0xfa0 <__cmpsf2>
     836:	0c 2f       	mov	r16, r28
     838:	10 e0       	ldi	r17, 0x00	; 0
     83a:	87 ff       	sbrs	r24, 7
     83c:	0f c0       	rjmp	.+30     	; 0x85c <__DATA_REGION_LENGTH__+0x5c>
     83e:	b8 01       	movw	r22, r16
     840:	11 0f       	add	r17, r17
     842:	88 0b       	sbc	r24, r24
     844:	99 0b       	sbc	r25, r25
     846:	0e 94 06 08 	call	0x100c	; 0x100c <__floatsisf>
     84a:	a5 01       	movw	r20, r10
     84c:	94 01       	movw	r18, r8
     84e:	0e 94 b6 08 	call	0x116c	; 0x116c <__mulsf3>
     852:	0e 94 d5 07 	call	0xfaa	; 0xfaa <__fixunssfsi>
     856:	86 2f       	mov	r24, r22
     858:	6c 2f       	mov	r22, r28
     85a:	23 c0       	rjmp	.+70     	; 0x8a2 <__DATA_REGION_LENGTH__+0xa2>
     85c:	20 e0       	ldi	r18, 0x00	; 0
     85e:	30 e0       	ldi	r19, 0x00	; 0
     860:	40 ef       	ldi	r20, 0xF0	; 240
     862:	52 e4       	ldi	r21, 0x42	; 66
     864:	c3 01       	movw	r24, r6
     866:	b2 01       	movw	r22, r4
     868:	0e 94 d0 07 	call	0xfa0	; 0xfa0 <__cmpsf2>
     86c:	87 ff       	sbrs	r24, 7
     86e:	1b c0       	rjmp	.+54     	; 0x8a6 <__DATA_REGION_LENGTH__+0xa6>
     870:	b8 01       	movw	r22, r16
     872:	11 0f       	add	r17, r17
     874:	88 0b       	sbc	r24, r24
     876:	99 0b       	sbc	r25, r25
     878:	0e 94 06 08 	call	0x100c	; 0x100c <__floatsisf>
     87c:	2b 01       	movw	r4, r22
     87e:	3c 01       	movw	r6, r24
     880:	a5 01       	movw	r20, r10
     882:	94 01       	movw	r18, r8
     884:	60 e0       	ldi	r22, 0x00	; 0
     886:	70 e0       	ldi	r23, 0x00	; 0
     888:	80 e0       	ldi	r24, 0x00	; 0
     88a:	90 e4       	ldi	r25, 0x40	; 64
     88c:	0e 94 63 07 	call	0xec6	; 0xec6 <__subsf3>
     890:	9b 01       	movw	r18, r22
     892:	ac 01       	movw	r20, r24
     894:	c3 01       	movw	r24, r6
     896:	b2 01       	movw	r22, r4
     898:	0e 94 b6 08 	call	0x116c	; 0x116c <__mulsf3>
     89c:	0e 94 d5 07 	call	0xfaa	; 0xfaa <__fixunssfsi>
     8a0:	8c 2f       	mov	r24, r28
     8a2:	c0 e0       	ldi	r28, 0x00	; 0
     8a4:	89 c0       	rjmp	.+274    	; 0x9b8 <__DATA_REGION_LENGTH__+0x1b8>
     8a6:	20 e0       	ldi	r18, 0x00	; 0
     8a8:	30 e0       	ldi	r19, 0x00	; 0
     8aa:	44 e3       	ldi	r20, 0x34	; 52
     8ac:	53 e4       	ldi	r21, 0x43	; 67
     8ae:	c3 01       	movw	r24, r6
     8b0:	b2 01       	movw	r22, r4
     8b2:	0e 94 d0 07 	call	0xfa0	; 0xfa0 <__cmpsf2>
     8b6:	87 ff       	sbrs	r24, 7
     8b8:	1b c0       	rjmp	.+54     	; 0x8f0 <__DATA_REGION_LENGTH__+0xf0>
     8ba:	b8 01       	movw	r22, r16
     8bc:	11 0f       	add	r17, r17
     8be:	88 0b       	sbc	r24, r24
     8c0:	99 0b       	sbc	r25, r25
     8c2:	0e 94 06 08 	call	0x100c	; 0x100c <__floatsisf>
     8c6:	2b 01       	movw	r4, r22
     8c8:	3c 01       	movw	r6, r24
     8ca:	20 e0       	ldi	r18, 0x00	; 0
     8cc:	30 e0       	ldi	r19, 0x00	; 0
     8ce:	40 e0       	ldi	r20, 0x00	; 0
     8d0:	50 e4       	ldi	r21, 0x40	; 64
     8d2:	c5 01       	movw	r24, r10
     8d4:	b4 01       	movw	r22, r8
     8d6:	0e 94 63 07 	call	0xec6	; 0xec6 <__subsf3>
     8da:	9b 01       	movw	r18, r22
     8dc:	ac 01       	movw	r20, r24
     8de:	c3 01       	movw	r24, r6
     8e0:	b2 01       	movw	r22, r4
     8e2:	0e 94 b6 08 	call	0x116c	; 0x116c <__mulsf3>
     8e6:	0e 94 d5 07 	call	0xfaa	; 0xfaa <__fixunssfsi>
     8ea:	8c 2f       	mov	r24, r28
     8ec:	c6 2f       	mov	r28, r22
     8ee:	23 c0       	rjmp	.+70     	; 0x936 <__DATA_REGION_LENGTH__+0x136>
     8f0:	20 e0       	ldi	r18, 0x00	; 0
     8f2:	30 e0       	ldi	r19, 0x00	; 0
     8f4:	40 e7       	ldi	r20, 0x70	; 112
     8f6:	53 e4       	ldi	r21, 0x43	; 67
     8f8:	c3 01       	movw	r24, r6
     8fa:	b2 01       	movw	r22, r4
     8fc:	0e 94 d0 07 	call	0xfa0	; 0xfa0 <__cmpsf2>
     900:	87 ff       	sbrs	r24, 7
     902:	1b c0       	rjmp	.+54     	; 0x93a <__DATA_REGION_LENGTH__+0x13a>
     904:	b8 01       	movw	r22, r16
     906:	11 0f       	add	r17, r17
     908:	88 0b       	sbc	r24, r24
     90a:	99 0b       	sbc	r25, r25
     90c:	0e 94 06 08 	call	0x100c	; 0x100c <__floatsisf>
     910:	2b 01       	movw	r4, r22
     912:	3c 01       	movw	r6, r24
     914:	a5 01       	movw	r20, r10
     916:	94 01       	movw	r18, r8
     918:	60 e0       	ldi	r22, 0x00	; 0
     91a:	70 e0       	ldi	r23, 0x00	; 0
     91c:	80 e8       	ldi	r24, 0x80	; 128
     91e:	90 e4       	ldi	r25, 0x40	; 64
     920:	0e 94 63 07 	call	0xec6	; 0xec6 <__subsf3>
     924:	9b 01       	movw	r18, r22
     926:	ac 01       	movw	r20, r24
     928:	c3 01       	movw	r24, r6
     92a:	b2 01       	movw	r22, r4
     92c:	0e 94 b6 08 	call	0x116c	; 0x116c <__mulsf3>
     930:	0e 94 d5 07 	call	0xfaa	; 0xfaa <__fixunssfsi>
     934:	86 2f       	mov	r24, r22
     936:	60 e0       	ldi	r22, 0x00	; 0
     938:	3f c0       	rjmp	.+126    	; 0x9b8 <__DATA_REGION_LENGTH__+0x1b8>
     93a:	20 e0       	ldi	r18, 0x00	; 0
     93c:	30 e0       	ldi	r19, 0x00	; 0
     93e:	46 e9       	ldi	r20, 0x96	; 150
     940:	53 e4       	ldi	r21, 0x43	; 67
     942:	c3 01       	movw	r24, r6
     944:	b2 01       	movw	r22, r4
     946:	0e 94 d0 07 	call	0xfa0	; 0xfa0 <__cmpsf2>
     94a:	87 ff       	sbrs	r24, 7
     94c:	19 c0       	rjmp	.+50     	; 0x980 <__DATA_REGION_LENGTH__+0x180>
     94e:	b8 01       	movw	r22, r16
     950:	11 0f       	add	r17, r17
     952:	88 0b       	sbc	r24, r24
     954:	99 0b       	sbc	r25, r25
     956:	0e 94 06 08 	call	0x100c	; 0x100c <__floatsisf>
     95a:	2b 01       	movw	r4, r22
     95c:	3c 01       	movw	r6, r24
     95e:	20 e0       	ldi	r18, 0x00	; 0
     960:	30 e0       	ldi	r19, 0x00	; 0
     962:	40 e8       	ldi	r20, 0x80	; 128
     964:	50 e4       	ldi	r21, 0x40	; 64
     966:	c5 01       	movw	r24, r10
     968:	b4 01       	movw	r22, r8
     96a:	0e 94 63 07 	call	0xec6	; 0xec6 <__subsf3>
     96e:	9b 01       	movw	r18, r22
     970:	ac 01       	movw	r20, r24
     972:	c3 01       	movw	r24, r6
     974:	b2 01       	movw	r22, r4
     976:	0e 94 b6 08 	call	0x116c	; 0x116c <__mulsf3>
     97a:	0e 94 d5 07 	call	0xfaa	; 0xfaa <__fixunssfsi>
     97e:	1b c0       	rjmp	.+54     	; 0x9b6 <__DATA_REGION_LENGTH__+0x1b6>
     980:	b8 01       	movw	r22, r16
     982:	11 0f       	add	r17, r17
     984:	88 0b       	sbc	r24, r24
     986:	99 0b       	sbc	r25, r25
     988:	0e 94 06 08 	call	0x100c	; 0x100c <__floatsisf>
     98c:	2b 01       	movw	r4, r22
     98e:	3c 01       	movw	r6, r24
     990:	a5 01       	movw	r20, r10
     992:	94 01       	movw	r18, r8
     994:	60 e0       	ldi	r22, 0x00	; 0
     996:	70 e0       	ldi	r23, 0x00	; 0
     998:	80 ec       	ldi	r24, 0xC0	; 192
     99a:	90 e4       	ldi	r25, 0x40	; 64
     99c:	0e 94 63 07 	call	0xec6	; 0xec6 <__subsf3>
     9a0:	9b 01       	movw	r18, r22
     9a2:	ac 01       	movw	r20, r24
     9a4:	c3 01       	movw	r24, r6
     9a6:	b2 01       	movw	r22, r4
     9a8:	0e 94 b6 08 	call	0x116c	; 0x116c <__mulsf3>
     9ac:	0e 94 d5 07 	call	0xfaa	; 0xfaa <__fixunssfsi>
     9b0:	86 2f       	mov	r24, r22
     9b2:	6c 2f       	mov	r22, r28
     9b4:	c8 2f       	mov	r28, r24
     9b6:	80 e0       	ldi	r24, 0x00	; 0
     9b8:	f7 01       	movw	r30, r14
     9ba:	61 83       	std	Z+1, r22	; 0x01
     9bc:	83 83       	std	Z+3, r24	; 0x03
     9be:	c5 83       	std	Z+5, r28	; 0x05
     9c0:	cf 91       	pop	r28
     9c2:	1f 91       	pop	r17
     9c4:	0f 91       	pop	r16
     9c6:	ff 90       	pop	r15
     9c8:	ef 90       	pop	r14
     9ca:	bf 90       	pop	r11
     9cc:	af 90       	pop	r10
     9ce:	9f 90       	pop	r9
     9d0:	8f 90       	pop	r8
     9d2:	7f 90       	pop	r7
     9d4:	6f 90       	pop	r6
     9d6:	5f 90       	pop	r5
     9d8:	4f 90       	pop	r4
     9da:	08 95       	ret

000009dc <led_rgbInit>:
     9dc:	a1 eb       	ldi	r26, 0xB1	; 177
     9de:	b8 e3       	ldi	r27, 0x38	; 56
     9e0:	81 e0       	ldi	r24, 0x01	; 1
     9e2:	8c 93       	st	X, r24
     9e4:	e1 e8       	ldi	r30, 0x81	; 129
     9e6:	f8 e3       	ldi	r31, 0x38	; 56
     9e8:	82 83       	std	Z+2, r24	; 0x02
     9ea:	82 eb       	ldi	r24, 0xB2	; 178
     9ec:	98 e3       	ldi	r25, 0x38	; 56
     9ee:	80 83       	st	Z, r24
     9f0:	91 83       	std	Z+1, r25	; 0x01
     9f2:	82 e0       	ldi	r24, 0x02	; 2
     9f4:	12 96       	adiw	r26, 0x02	; 2
     9f6:	8c 93       	st	X, r24
     9f8:	12 97       	sbiw	r26, 0x02	; 2
     9fa:	86 83       	std	Z+6, r24	; 0x06
     9fc:	84 eb       	ldi	r24, 0xB4	; 180
     9fe:	98 e3       	ldi	r25, 0x38	; 56
     a00:	84 83       	std	Z+4, r24	; 0x04
     a02:	95 83       	std	Z+5, r25	; 0x05
     a04:	14 96       	adiw	r26, 0x04	; 4
     a06:	1c 92       	st	X, r1
     a08:	14 97       	sbiw	r26, 0x04	; 4
     a0a:	12 86       	std	Z+10, r1	; 0x0a
     a0c:	86 eb       	ldi	r24, 0xB6	; 182
     a0e:	98 e3       	ldi	r25, 0x38	; 56
     a10:	80 87       	std	Z+8, r24	; 0x08
     a12:	91 87       	std	Z+9, r25	; 0x09
     a14:	86 e0       	ldi	r24, 0x06	; 6
     a16:	16 96       	adiw	r26, 0x06	; 6
     a18:	8c 93       	st	X, r24
     a1a:	16 97       	sbiw	r26, 0x06	; 6
     a1c:	86 87       	std	Z+14, r24	; 0x0e
     a1e:	88 eb       	ldi	r24, 0xB8	; 184
     a20:	98 e3       	ldi	r25, 0x38	; 56
     a22:	84 87       	std	Z+12, r24	; 0x0c
     a24:	95 87       	std	Z+13, r25	; 0x0d
     a26:	87 e0       	ldi	r24, 0x07	; 7
     a28:	18 96       	adiw	r26, 0x08	; 8
     a2a:	8c 93       	st	X, r24
     a2c:	18 97       	sbiw	r26, 0x08	; 8
     a2e:	82 8b       	std	Z+18, r24	; 0x12
     a30:	8a eb       	ldi	r24, 0xBA	; 186
     a32:	98 e3       	ldi	r25, 0x38	; 56
     a34:	80 8b       	std	Z+16, r24	; 0x10
     a36:	91 8b       	std	Z+17, r25	; 0x11
     a38:	85 e0       	ldi	r24, 0x05	; 5
     a3a:	1a 96       	adiw	r26, 0x0a	; 10
     a3c:	8c 93       	st	X, r24
     a3e:	1a 97       	sbiw	r26, 0x0a	; 10
     a40:	86 8b       	std	Z+22, r24	; 0x16
     a42:	8c eb       	ldi	r24, 0xBC	; 188
     a44:	98 e3       	ldi	r25, 0x38	; 56
     a46:	84 8b       	std	Z+20, r24	; 0x14
     a48:	95 8b       	std	Z+21, r25	; 0x15
     a4a:	89 e0       	ldi	r24, 0x09	; 9
     a4c:	1c 96       	adiw	r26, 0x0c	; 12
     a4e:	8c 93       	st	X, r24
     a50:	1c 97       	sbiw	r26, 0x0c	; 12
     a52:	82 8f       	std	Z+26, r24	; 0x1a
     a54:	8e eb       	ldi	r24, 0xBE	; 190
     a56:	98 e3       	ldi	r25, 0x38	; 56
     a58:	80 8f       	std	Z+24, r24	; 0x18
     a5a:	91 8f       	std	Z+25, r25	; 0x19
     a5c:	8a e0       	ldi	r24, 0x0A	; 10
     a5e:	1e 96       	adiw	r26, 0x0e	; 14
     a60:	8c 93       	st	X, r24
     a62:	1e 97       	sbiw	r26, 0x0e	; 14
     a64:	86 8f       	std	Z+30, r24	; 0x1e
     a66:	80 ec       	ldi	r24, 0xC0	; 192
     a68:	98 e3       	ldi	r25, 0x38	; 56
     a6a:	84 8f       	std	Z+28, r24	; 0x1c
     a6c:	95 8f       	std	Z+29, r25	; 0x1d
     a6e:	88 e0       	ldi	r24, 0x08	; 8
     a70:	50 96       	adiw	r26, 0x10	; 16
     a72:	8c 93       	st	X, r24
     a74:	50 97       	sbiw	r26, 0x10	; 16
     a76:	82 a3       	std	Z+34, r24	; 0x22
     a78:	82 ec       	ldi	r24, 0xC2	; 194
     a7a:	98 e3       	ldi	r25, 0x38	; 56
     a7c:	80 a3       	std	Z+32, r24	; 0x20
     a7e:	91 a3       	std	Z+33, r25	; 0x21
     a80:	8e e0       	ldi	r24, 0x0E	; 14
     a82:	52 96       	adiw	r26, 0x12	; 18
     a84:	8c 93       	st	X, r24
     a86:	52 97       	sbiw	r26, 0x12	; 18
     a88:	86 a3       	std	Z+38, r24	; 0x26
     a8a:	84 ec       	ldi	r24, 0xC4	; 196
     a8c:	98 e3       	ldi	r25, 0x38	; 56
     a8e:	84 a3       	std	Z+36, r24	; 0x24
     a90:	95 a3       	std	Z+37, r25	; 0x25
     a92:	8f e0       	ldi	r24, 0x0F	; 15
     a94:	54 96       	adiw	r26, 0x14	; 20
     a96:	8c 93       	st	X, r24
     a98:	54 97       	sbiw	r26, 0x14	; 20
     a9a:	82 a7       	std	Z+42, r24	; 0x2a
     a9c:	86 ec       	ldi	r24, 0xC6	; 198
     a9e:	98 e3       	ldi	r25, 0x38	; 56
     aa0:	80 a7       	std	Z+40, r24	; 0x28
     aa2:	91 a7       	std	Z+41, r25	; 0x29
     aa4:	8d e0       	ldi	r24, 0x0D	; 13
     aa6:	56 96       	adiw	r26, 0x16	; 22
     aa8:	8c 93       	st	X, r24
     aaa:	86 a7       	std	Z+46, r24	; 0x2e
     aac:	88 ec       	ldi	r24, 0xC8	; 200
     aae:	98 e3       	ldi	r25, 0x38	; 56
     ab0:	84 a7       	std	Z+44, r24	; 0x2c
     ab2:	95 a7       	std	Z+45, r25	; 0x2d
     ab4:	e9 e3       	ldi	r30, 0x39	; 57
     ab6:	f8 e3       	ldi	r31, 0x38	; 56
     ab8:	10 82       	st	Z, r1
     aba:	11 82       	std	Z+1, r1	; 0x01
     abc:	12 82       	std	Z+2, r1	; 0x02
     abe:	08 95       	ret

00000ac0 <led_updateColorSystem>:
     ac0:	1f 93       	push	r17
     ac2:	cf 93       	push	r28
     ac4:	df 93       	push	r29
     ac6:	80 e0       	ldi	r24, 0x00	; 0
     ac8:	90 e0       	ldi	r25, 0x00	; 0
     aca:	fc 01       	movw	r30, r24
     acc:	ee 0f       	add	r30, r30
     ace:	ff 1f       	adc	r31, r31
     ad0:	ee 0f       	add	r30, r30
     ad2:	ff 1f       	adc	r31, r31
     ad4:	ef 57       	subi	r30, 0x7F	; 127
     ad6:	f7 4c       	sbci	r31, 0xC7	; 199
     ad8:	a0 81       	ld	r26, Z
     ada:	b1 81       	ldd	r27, Z+1	; 0x01
     adc:	2c 91       	ld	r18, X
     ade:	23 83       	std	Z+3, r18	; 0x03
     ae0:	01 96       	adiw	r24, 0x01	; 1
     ae2:	8c 30       	cpi	r24, 0x0C	; 12
     ae4:	91 05       	cpc	r25, r1
     ae6:	89 f7       	brne	.-30     	; 0xaca <led_updateColorSystem+0xa>
     ae8:	2c e9       	ldi	r18, 0x9C	; 156
     aea:	33 e0       	ldi	r19, 0x03	; 3
     aec:	44 e0       	ldi	r20, 0x04	; 4
     aee:	50 e0       	ldi	r21, 0x00	; 0
     af0:	6c e0       	ldi	r22, 0x0C	; 12
     af2:	70 e0       	ldi	r23, 0x00	; 0
     af4:	81 e8       	ldi	r24, 0x81	; 129
     af6:	98 e3       	ldi	r25, 0x38	; 56
     af8:	0e 94 76 09 	call	0x12ec	; 0x12ec <qsort>
     afc:	10 92 01 38 	sts	0x3801, r1	; 0x803801 <nLedEventUpdate>
     b00:	10 92 3b 38 	sts	0x383B, r1	; 0x80383b <ledEventsUpdate+0x2>
     b04:	20 e0       	ldi	r18, 0x00	; 0
     b06:	30 e0       	ldi	r19, 0x00	; 0
     b08:	47 ee       	ldi	r20, 0xE7	; 231
     b0a:	57 ee       	ldi	r21, 0xE7	; 231
     b0c:	61 e0       	ldi	r22, 0x01	; 1
     b0e:	70 e0       	ldi	r23, 0x00	; 0
     b10:	d9 01       	movw	r26, r18
     b12:	aa 0f       	add	r26, r26
     b14:	bb 1f       	adc	r27, r27
     b16:	aa 0f       	add	r26, r26
     b18:	bb 1f       	adc	r27, r27
     b1a:	ed 01       	movw	r28, r26
     b1c:	cf 57       	subi	r28, 0x7F	; 127
     b1e:	d7 4c       	sbci	r29, 0xC7	; 199
     b20:	8b 81       	ldd	r24, Y+3	; 0x03
     b22:	8f 3f       	cpi	r24, 0xFF	; 255
     b24:	09 f4       	brne	.+2      	; 0xb28 <led_updateColorSystem+0x68>
     b26:	43 c0       	rjmp	.+134    	; 0xbae <led_updateColorSystem+0xee>
     b28:	1b 81       	ldd	r17, Y+3	; 0x03
     b2a:	80 91 01 38 	lds	r24, 0x3801	; 0x803801 <nLedEventUpdate>
     b2e:	90 e0       	ldi	r25, 0x00	; 0
     b30:	fc 01       	movw	r30, r24
     b32:	ee 0f       	add	r30, r30
     b34:	ff 1f       	adc	r31, r31
     b36:	8e 0f       	add	r24, r30
     b38:	9f 1f       	adc	r25, r31
     b3a:	fc 01       	movw	r30, r24
     b3c:	e7 5c       	subi	r30, 0xC7	; 199
     b3e:	f7 4c       	sbci	r31, 0xC7	; 199
     b40:	82 81       	ldd	r24, Z+2	; 0x02
     b42:	81 17       	cp	r24, r17
     b44:	90 f4       	brcc	.+36     	; 0xb6a <led_updateColorSystem+0xaa>
     b46:	80 91 01 38 	lds	r24, 0x3801	; 0x803801 <nLedEventUpdate>
     b4a:	8f 5f       	subi	r24, 0xFF	; 255
     b4c:	80 93 01 38 	sts	0x3801, r24	; 0x803801 <nLedEventUpdate>
     b50:	80 91 01 38 	lds	r24, 0x3801	; 0x803801 <nLedEventUpdate>
     b54:	90 e0       	ldi	r25, 0x00	; 0
     b56:	cb 81       	ldd	r28, Y+3	; 0x03
     b58:	fc 01       	movw	r30, r24
     b5a:	ee 0f       	add	r30, r30
     b5c:	ff 1f       	adc	r31, r31
     b5e:	8e 0f       	add	r24, r30
     b60:	9f 1f       	adc	r25, r31
     b62:	fc 01       	movw	r30, r24
     b64:	e7 5c       	subi	r30, 0xC7	; 199
     b66:	f7 4c       	sbci	r31, 0xC7	; 199
     b68:	c2 83       	std	Z+2, r28	; 0x02
     b6a:	af 57       	subi	r26, 0x7F	; 127
     b6c:	b7 4c       	sbci	r27, 0xC7	; 199
     b6e:	12 96       	adiw	r26, 0x02	; 2
     b70:	8c 91       	ld	r24, X
     b72:	fb 01       	movw	r30, r22
     b74:	02 c0       	rjmp	.+4      	; 0xb7a <led_updateColorSystem+0xba>
     b76:	ee 0f       	add	r30, r30
     b78:	ff 1f       	adc	r31, r31
     b7a:	8a 95       	dec	r24
     b7c:	e2 f7       	brpl	.-8      	; 0xb76 <led_updateColorSystem+0xb6>
     b7e:	cf 01       	movw	r24, r30
     b80:	80 95       	com	r24
     b82:	90 95       	com	r25
     b84:	48 23       	and	r20, r24
     b86:	59 23       	and	r21, r25
     b88:	80 91 01 38 	lds	r24, 0x3801	; 0x803801 <nLedEventUpdate>
     b8c:	90 e0       	ldi	r25, 0x00	; 0
     b8e:	fc 01       	movw	r30, r24
     b90:	ee 0f       	add	r30, r30
     b92:	ff 1f       	adc	r31, r31
     b94:	8e 0f       	add	r24, r30
     b96:	9f 1f       	adc	r25, r31
     b98:	fc 01       	movw	r30, r24
     b9a:	e7 5c       	subi	r30, 0xC7	; 199
     b9c:	f7 4c       	sbci	r31, 0xC7	; 199
     b9e:	40 83       	st	Z, r20
     ba0:	51 83       	std	Z+1, r21	; 0x01
     ba2:	2f 5f       	subi	r18, 0xFF	; 255
     ba4:	3f 4f       	sbci	r19, 0xFF	; 255
     ba6:	2c 30       	cpi	r18, 0x0C	; 12
     ba8:	31 05       	cpc	r19, r1
     baa:	09 f0       	breq	.+2      	; 0xbae <led_updateColorSystem+0xee>
     bac:	b1 cf       	rjmp	.-158    	; 0xb10 <led_updateColorSystem+0x50>
     bae:	80 91 01 38 	lds	r24, 0x3801	; 0x803801 <nLedEventUpdate>
     bb2:	8f 5f       	subi	r24, 0xFF	; 255
     bb4:	80 93 01 38 	sts	0x3801, r24	; 0x803801 <nLedEventUpdate>
     bb8:	80 e0       	ldi	r24, 0x00	; 0
     bba:	90 e0       	ldi	r25, 0x00	; 0
     bbc:	60 e0       	ldi	r22, 0x00	; 0
     bbe:	20 91 01 38 	lds	r18, 0x3801	; 0x803801 <nLedEventUpdate>
     bc2:	30 e0       	ldi	r19, 0x00	; 0
     bc4:	82 17       	cp	r24, r18
     bc6:	93 07       	cpc	r25, r19
     bc8:	6c f5       	brge	.+90     	; 0xc24 <led_updateColorSystem+0x164>
     bca:	40 91 01 38 	lds	r20, 0x3801	; 0x803801 <nLedEventUpdate>
     bce:	50 e0       	ldi	r21, 0x00	; 0
     bd0:	41 50       	subi	r20, 0x01	; 1
     bd2:	51 09       	sbc	r21, r1
     bd4:	9c 01       	movw	r18, r24
     bd6:	22 0f       	add	r18, r18
     bd8:	33 1f       	adc	r19, r19
     bda:	dc 01       	movw	r26, r24
     bdc:	11 96       	adiw	r26, 0x01	; 1
     bde:	84 17       	cp	r24, r20
     be0:	95 07       	cpc	r25, r21
     be2:	41 f4       	brne	.+16     	; 0xbf4 <led_updateColorSystem+0x134>
     be4:	f9 01       	movw	r30, r18
     be6:	e8 0f       	add	r30, r24
     be8:	f9 1f       	adc	r31, r25
     bea:	e7 5c       	subi	r30, 0xC7	; 199
     bec:	f7 4c       	sbci	r31, 0xC7	; 199
     bee:	46 2f       	mov	r20, r22
     bf0:	40 95       	com	r20
     bf2:	0e c0       	rjmp	.+28     	; 0xc10 <led_updateColorSystem+0x150>
     bf4:	fd 01       	movw	r30, r26
     bf6:	ee 0f       	add	r30, r30
     bf8:	ff 1f       	adc	r31, r31
     bfa:	ea 0f       	add	r30, r26
     bfc:	fb 1f       	adc	r31, r27
     bfe:	e7 5c       	subi	r30, 0xC7	; 199
     c00:	f7 4c       	sbci	r31, 0xC7	; 199
     c02:	42 81       	ldd	r20, Z+2	; 0x02
     c04:	46 1b       	sub	r20, r22
     c06:	f9 01       	movw	r30, r18
     c08:	e8 0f       	add	r30, r24
     c0a:	f9 1f       	adc	r31, r25
     c0c:	e7 5c       	subi	r30, 0xC7	; 199
     c0e:	f7 4c       	sbci	r31, 0xC7	; 199
     c10:	42 83       	std	Z+2, r20	; 0x02
     c12:	82 0f       	add	r24, r18
     c14:	93 1f       	adc	r25, r19
     c16:	fc 01       	movw	r30, r24
     c18:	e7 5c       	subi	r30, 0xC7	; 199
     c1a:	f7 4c       	sbci	r31, 0xC7	; 199
     c1c:	82 81       	ldd	r24, Z+2	; 0x02
     c1e:	68 0f       	add	r22, r24
     c20:	cd 01       	movw	r24, r26
     c22:	cd cf       	rjmp	.-102    	; 0xbbe <led_updateColorSystem+0xfe>
     c24:	df 91       	pop	r29
     c26:	cf 91       	pop	r28
     c28:	1f 91       	pop	r17
     c2a:	08 95       	ret

00000c2c <led_updateRGB>:
     c2c:	cf 93       	push	r28
     c2e:	df 93       	push	r29
     c30:	c8 2f       	mov	r28, r24
     c32:	d4 2f       	mov	r29, r20
     c34:	10 92 13 38 	sts	0x3813, r1	; 0x803813 <isNewLedEventReady>
     c38:	80 e0       	ldi	r24, 0x00	; 0
     c3a:	90 e0       	ldi	r25, 0x00	; 0
     c3c:	0e 94 04 08 	call	0x1008	; 0x1008 <__floatunsisf>
     c40:	ab 01       	movw	r20, r22
     c42:	bc 01       	movw	r22, r24
     c44:	26 e0       	ldi	r18, 0x06	; 6
     c46:	c2 9f       	mul	r28, r18
     c48:	c0 01       	movw	r24, r0
     c4a:	11 24       	eor	r1, r1
     c4c:	2d 2f       	mov	r18, r29
     c4e:	8f 54       	subi	r24, 0x4F	; 79
     c50:	97 4c       	sbci	r25, 0xC7	; 199
     c52:	0e 94 f8 03 	call	0x7f0	; 0x7f0 <led_hsvToRGB>
     c56:	0e 94 60 05 	call	0xac0	; 0xac0 <led_updateColorSystem>
     c5a:	f8 94       	cli
     c5c:	81 e0       	ldi	r24, 0x01	; 1
     c5e:	80 93 13 38 	sts	0x3813, r24	; 0x803813 <isNewLedEventReady>
     c62:	78 94       	sei
     c64:	df 91       	pop	r29
     c66:	cf 91       	pop	r28
     c68:	08 95       	ret

00000c6a <led_init>:
     c6a:	e0 e0       	ldi	r30, 0x00	; 0
     c6c:	f4 e0       	ldi	r31, 0x04	; 4
     c6e:	80 81       	ld	r24, Z
     c70:	8a 60       	ori	r24, 0x0A	; 10
     c72:	80 83       	st	Z, r24
     c74:	e0 e2       	ldi	r30, 0x20	; 32
     c76:	f4 e0       	ldi	r31, 0x04	; 4
     c78:	80 81       	ld	r24, Z
     c7a:	84 60       	ori	r24, 0x04	; 4
     c7c:	80 83       	st	Z, r24
     c7e:	e0 ec       	ldi	r30, 0xC0	; 192
     c80:	f8 e0       	ldi	r31, 0x08	; 8
     c82:	80 e2       	ldi	r24, 0x20	; 32
     c84:	80 83       	st	Z, r24
     c86:	84 e8       	ldi	r24, 0x84	; 132
     c88:	81 83       	std	Z+1, r24	; 0x01
     c8a:	80 81       	ld	r24, Z
     c8c:	81 60       	ori	r24, 0x01	; 1
     c8e:	80 83       	st	Z, r24
     c90:	0e 94 ee 04 	call	0x9dc	; 0x9dc <led_rgbInit>
     c94:	40 e0       	ldi	r20, 0x00	; 0
     c96:	60 e0       	ldi	r22, 0x00	; 0
     c98:	70 e0       	ldi	r23, 0x00	; 0
     c9a:	80 e0       	ldi	r24, 0x00	; 0
     c9c:	0e 94 16 06 	call	0xc2c	; 0xc2c <led_updateRGB>
     ca0:	40 e0       	ldi	r20, 0x00	; 0
     ca2:	60 e0       	ldi	r22, 0x00	; 0
     ca4:	70 e0       	ldi	r23, 0x00	; 0
     ca6:	81 e0       	ldi	r24, 0x01	; 1
     ca8:	0e 94 16 06 	call	0xc2c	; 0xc2c <led_updateRGB>
     cac:	40 e0       	ldi	r20, 0x00	; 0
     cae:	60 e0       	ldi	r22, 0x00	; 0
     cb0:	70 e0       	ldi	r23, 0x00	; 0
     cb2:	82 e0       	ldi	r24, 0x02	; 2
     cb4:	0e 94 16 06 	call	0xc2c	; 0xc2c <led_updateRGB>
     cb8:	40 e0       	ldi	r20, 0x00	; 0
     cba:	60 e0       	ldi	r22, 0x00	; 0
     cbc:	70 e0       	ldi	r23, 0x00	; 0
     cbe:	83 e0       	ldi	r24, 0x03	; 3
     cc0:	0c 94 16 06 	jmp	0xc2c	; 0xc2c <led_updateRGB>

00000cc4 <i2c_init>:
     cc4:	e0 ea       	ldi	r30, 0xA0	; 160
     cc6:	f8 e0       	ldi	r31, 0x08	; 8
     cc8:	89 e0       	ldi	r24, 0x09	; 9
     cca:	84 87       	std	Z+12, r24	; 0x0c
     ccc:	83 ee       	ldi	r24, 0xE3	; 227
     cce:	81 87       	std	Z+9, r24	; 0x09
     cd0:	e9 ec       	ldi	r30, 0xC9	; 201
     cd2:	f8 e3       	ldi	r31, 0x38	; 56
     cd4:	81 e0       	ldi	r24, 0x01	; 1
     cd6:	80 83       	st	Z, r24
     cd8:	82 e0       	ldi	r24, 0x02	; 2
     cda:	84 83       	std	Z+4, r24	; 0x04
     cdc:	83 e0       	ldi	r24, 0x03	; 3
     cde:	80 87       	std	Z+8, r24	; 0x08
     ce0:	84 e0       	ldi	r24, 0x04	; 4
     ce2:	84 87       	std	Z+12, r24	; 0x0c
     ce4:	08 95       	ret

00000ce6 <i2c_set_message>:
     ce6:	90 91 17 38 	lds	r25, 0x3817	; 0x803817 <state>
     cea:	87 ff       	sbrs	r24, 7
     cec:	4c c0       	rjmp	.+152    	; 0xd86 <i2c_set_message+0xa0>
     cee:	91 11       	cpse	r25, r1
     cf0:	6a c0       	rjmp	.+212    	; 0xdc6 <i2c_set_message+0xe0>
     cf2:	10 92 15 38 	sts	0x3815, r1	; 0x803815 <i_txBuffer>
     cf6:	10 92 16 38 	sts	0x3816, r1	; 0x803816 <n_rxBuffer>
     cfa:	9f ef       	ldi	r25, 0xFF	; 255
     cfc:	90 93 02 38 	sts	0x3802, r25	; 0x803802 <s_orderBuffer>
     d00:	8f 77       	andi	r24, 0x7F	; 127
     d02:	8c 32       	cpi	r24, 0x2C	; 44
     d04:	c9 f0       	breq	.+50     	; 0xd38 <i2c_set_message+0x52>
     d06:	48 f4       	brcc	.+18     	; 0xd1a <i2c_set_message+0x34>
     d08:	86 31       	cpi	r24, 0x16	; 22
     d0a:	91 f0       	breq	.+36     	; 0xd30 <i2c_set_message+0x4a>
     d0c:	81 32       	cpi	r24, 0x21	; 33
     d0e:	91 f0       	breq	.+36     	; 0xd34 <i2c_set_message+0x4e>
     d10:	8b 30       	cpi	r24, 0x0B	; 11
     d12:	09 f0       	breq	.+2      	; 0xd16 <i2c_set_message+0x30>
     d14:	58 c0       	rjmp	.+176    	; 0xdc6 <i2c_set_message+0xe0>
     d16:	81 e0       	ldi	r24, 0x01	; 1
     d18:	33 c0       	rjmp	.+102    	; 0xd80 <i2c_set_message+0x9a>
     d1a:	82 34       	cpi	r24, 0x42	; 66
     d1c:	b9 f0       	breq	.+46     	; 0xd4c <i2c_set_message+0x66>
     d1e:	18 f4       	brcc	.+6      	; 0xd26 <i2c_set_message+0x40>
     d20:	87 33       	cpi	r24, 0x37	; 55
     d22:	61 f0       	breq	.+24     	; 0xd3c <i2c_set_message+0x56>
     d24:	08 95       	ret
     d26:	8d 34       	cpi	r24, 0x4D	; 77
     d28:	d1 f0       	breq	.+52     	; 0xd5e <i2c_set_message+0x78>
     d2a:	88 35       	cpi	r24, 0x58	; 88
     d2c:	09 f1       	breq	.+66     	; 0xd70 <i2c_set_message+0x8a>
     d2e:	08 95       	ret
     d30:	84 e0       	ldi	r24, 0x04	; 4
     d32:	26 c0       	rjmp	.+76     	; 0xd80 <i2c_set_message+0x9a>
     d34:	82 e0       	ldi	r24, 0x02	; 2
     d36:	24 c0       	rjmp	.+72     	; 0xd80 <i2c_set_message+0x9a>
     d38:	83 e0       	ldi	r24, 0x03	; 3
     d3a:	22 c0       	rjmp	.+68     	; 0xd80 <i2c_set_message+0x9a>
     d3c:	80 91 c9 38 	lds	r24, 0x38C9	; 0x8038c9 <orderBuffer>
     d40:	87 fd       	sbrc	r24, 7
     d42:	41 c0       	rjmp	.+130    	; 0xdc6 <i2c_set_message+0xe0>
     d44:	10 92 02 38 	sts	0x3802, r1	; 0x803802 <s_orderBuffer>
     d48:	85 e0       	ldi	r24, 0x05	; 5
     d4a:	1a c0       	rjmp	.+52     	; 0xd80 <i2c_set_message+0x9a>
     d4c:	80 91 cd 38 	lds	r24, 0x38CD	; 0x8038cd <orderBuffer+0x4>
     d50:	87 fd       	sbrc	r24, 7
     d52:	39 c0       	rjmp	.+114    	; 0xdc6 <i2c_set_message+0xe0>
     d54:	81 e0       	ldi	r24, 0x01	; 1
     d56:	80 93 02 38 	sts	0x3802, r24	; 0x803802 <s_orderBuffer>
     d5a:	86 e0       	ldi	r24, 0x06	; 6
     d5c:	11 c0       	rjmp	.+34     	; 0xd80 <i2c_set_message+0x9a>
     d5e:	80 91 d1 38 	lds	r24, 0x38D1	; 0x8038d1 <orderBuffer+0x8>
     d62:	87 fd       	sbrc	r24, 7
     d64:	30 c0       	rjmp	.+96     	; 0xdc6 <i2c_set_message+0xe0>
     d66:	82 e0       	ldi	r24, 0x02	; 2
     d68:	80 93 02 38 	sts	0x3802, r24	; 0x803802 <s_orderBuffer>
     d6c:	87 e0       	ldi	r24, 0x07	; 7
     d6e:	08 c0       	rjmp	.+16     	; 0xd80 <i2c_set_message+0x9a>
     d70:	80 91 d5 38 	lds	r24, 0x38D5	; 0x8038d5 <orderBuffer+0xc>
     d74:	87 fd       	sbrc	r24, 7
     d76:	27 c0       	rjmp	.+78     	; 0xdc6 <i2c_set_message+0xe0>
     d78:	83 e0       	ldi	r24, 0x03	; 3
     d7a:	80 93 02 38 	sts	0x3802, r24	; 0x803802 <s_orderBuffer>
     d7e:	88 e0       	ldi	r24, 0x08	; 8
     d80:	80 93 17 38 	sts	0x3817, r24	; 0x803817 <state>
     d84:	08 95       	ret
     d86:	95 50       	subi	r25, 0x05	; 5
     d88:	94 30       	cpi	r25, 0x04	; 4
     d8a:	c8 f4       	brcc	.+50     	; 0xdbe <i2c_set_message+0xd8>
     d8c:	e0 91 02 38 	lds	r30, 0x3802	; 0x803802 <s_orderBuffer>
     d90:	90 91 16 38 	lds	r25, 0x3816	; 0x803816 <n_rxBuffer>
     d94:	24 e0       	ldi	r18, 0x04	; 4
     d96:	e2 9f       	mul	r30, r18
     d98:	f0 01       	movw	r30, r0
     d9a:	11 24       	eor	r1, r1
     d9c:	e7 53       	subi	r30, 0x37	; 55
     d9e:	f7 4c       	sbci	r31, 0xC7	; 199
     da0:	df 01       	movw	r26, r30
     da2:	a9 0f       	add	r26, r25
     da4:	b1 1d       	adc	r27, r1
     da6:	11 96       	adiw	r26, 0x01	; 1
     da8:	8c 93       	st	X, r24
     daa:	81 e0       	ldi	r24, 0x01	; 1
     dac:	89 0f       	add	r24, r25
     dae:	80 93 16 38 	sts	0x3816, r24	; 0x803816 <n_rxBuffer>
     db2:	83 30       	cpi	r24, 0x03	; 3
     db4:	40 f0       	brcs	.+16     	; 0xdc6 <i2c_set_message+0xe0>
     db6:	80 81       	ld	r24, Z
     db8:	80 68       	ori	r24, 0x80	; 128
     dba:	80 83       	st	Z, r24
     dbc:	02 c0       	rjmp	.+4      	; 0xdc2 <i2c_set_message+0xdc>
     dbe:	10 92 16 38 	sts	0x3816, r1	; 0x803816 <n_rxBuffer>
     dc2:	10 92 17 38 	sts	0x3817, r1	; 0x803817 <state>
     dc6:	08 95       	ret

00000dc8 <i2c_get_response>:
     dc8:	80 91 17 38 	lds	r24, 0x3817	; 0x803817 <state>
     dcc:	82 30       	cpi	r24, 0x02	; 2
     dce:	39 f1       	breq	.+78     	; 0xe1e <i2c_get_response+0x56>
     dd0:	18 f4       	brcc	.+6      	; 0xdd8 <i2c_get_response+0x10>
     dd2:	81 30       	cpi	r24, 0x01	; 1
     dd4:	31 f0       	breq	.+12     	; 0xde2 <i2c_get_response+0x1a>
     dd6:	38 c0       	rjmp	.+112    	; 0xe48 <i2c_get_response+0x80>
     dd8:	83 30       	cpi	r24, 0x03	; 3
     dda:	81 f1       	breq	.+96     	; 0xe3c <i2c_get_response+0x74>
     ddc:	84 30       	cpi	r24, 0x04	; 4
     dde:	81 f0       	breq	.+32     	; 0xe00 <i2c_get_response+0x38>
     de0:	33 c0       	rjmp	.+102    	; 0xe48 <i2c_get_response+0x80>
     de2:	90 91 15 38 	lds	r25, 0x3815	; 0x803815 <i_txBuffer>
     de6:	81 e0       	ldi	r24, 0x01	; 1
     de8:	89 0f       	add	r24, r25
     dea:	82 30       	cpi	r24, 0x02	; 2
     dec:	18 f4       	brcc	.+6      	; 0xdf4 <i2c_get_response+0x2c>
     dee:	80 93 15 38 	sts	0x3815, r24	; 0x803815 <i_txBuffer>
     df2:	04 c0       	rjmp	.+8      	; 0xdfc <i2c_get_response+0x34>
     df4:	10 92 15 38 	sts	0x3815, r1	; 0x803815 <i_txBuffer>
     df8:	10 92 17 38 	sts	0x3817, r1	; 0x803817 <state>
     dfc:	80 e0       	ldi	r24, 0x00	; 0
     dfe:	08 95       	ret
     e00:	90 91 15 38 	lds	r25, 0x3815	; 0x803815 <i_txBuffer>
     e04:	81 e0       	ldi	r24, 0x01	; 1
     e06:	89 0f       	add	r24, r25
     e08:	82 30       	cpi	r24, 0x02	; 2
     e0a:	18 f4       	brcc	.+6      	; 0xe12 <i2c_get_response+0x4a>
     e0c:	80 93 15 38 	sts	0x3815, r24	; 0x803815 <i_txBuffer>
     e10:	04 c0       	rjmp	.+8      	; 0xe1a <i2c_get_response+0x52>
     e12:	10 92 15 38 	sts	0x3815, r1	; 0x803815 <i_txBuffer>
     e16:	10 92 17 38 	sts	0x3817, r1	; 0x803817 <state>
     e1a:	81 e0       	ldi	r24, 0x01	; 1
     e1c:	08 95       	ret
     e1e:	90 91 15 38 	lds	r25, 0x3815	; 0x803815 <i_txBuffer>
     e22:	81 e0       	ldi	r24, 0x01	; 1
     e24:	89 0f       	add	r24, r25
     e26:	82 30       	cpi	r24, 0x02	; 2
     e28:	18 f4       	brcc	.+6      	; 0xe30 <i2c_get_response+0x68>
     e2a:	80 93 15 38 	sts	0x3815, r24	; 0x803815 <i_txBuffer>
     e2e:	04 c0       	rjmp	.+8      	; 0xe38 <i2c_get_response+0x70>
     e30:	10 92 15 38 	sts	0x3815, r1	; 0x803815 <i_txBuffer>
     e34:	10 92 17 38 	sts	0x3817, r1	; 0x803817 <state>
     e38:	82 e0       	ldi	r24, 0x02	; 2
     e3a:	08 95       	ret
     e3c:	10 92 15 38 	sts	0x3815, r1	; 0x803815 <i_txBuffer>
     e40:	10 92 17 38 	sts	0x3817, r1	; 0x803817 <state>
     e44:	83 e0       	ldi	r24, 0x03	; 3
     e46:	08 95       	ret
     e48:	10 92 15 38 	sts	0x3815, r1	; 0x803815 <i_txBuffer>
     e4c:	10 92 17 38 	sts	0x3817, r1	; 0x803817 <state>
     e50:	84 e0       	ldi	r24, 0x04	; 4
     e52:	08 95       	ret

00000e54 <i2c_get_order>:
     e54:	e9 ec       	ldi	r30, 0xC9	; 201
     e56:	f8 e3       	ldi	r31, 0x38	; 56
     e58:	20 e0       	ldi	r18, 0x00	; 0
     e5a:	30 e0       	ldi	r19, 0x00	; 0
     e5c:	f8 94       	cli
     e5e:	60 81       	ld	r22, Z
     e60:	67 ff       	sbrs	r22, 7
     e62:	0e c0       	rjmp	.+28     	; 0xe80 <i2c_get_order+0x2c>
     e64:	22 0f       	add	r18, r18
     e66:	33 1f       	adc	r19, r19
     e68:	22 0f       	add	r18, r18
     e6a:	33 1f       	adc	r19, r19
     e6c:	f9 01       	movw	r30, r18
     e6e:	e7 53       	subi	r30, 0x37	; 55
     e70:	f7 4c       	sbci	r31, 0xC7	; 199
     e72:	6f 77       	andi	r22, 0x7F	; 127
     e74:	60 83       	st	Z, r22
     e76:	71 81       	ldd	r23, Z+1	; 0x01
     e78:	82 81       	ldd	r24, Z+2	; 0x02
     e7a:	93 81       	ldd	r25, Z+3	; 0x03
     e7c:	78 94       	sei
     e7e:	08 95       	ret
     e80:	78 94       	sei
     e82:	2f 5f       	subi	r18, 0xFF	; 255
     e84:	3f 4f       	sbci	r19, 0xFF	; 255
     e86:	34 96       	adiw	r30, 0x04	; 4
     e88:	25 30       	cpi	r18, 0x05	; 5
     e8a:	31 05       	cpc	r19, r1
     e8c:	39 f7       	brne	.-50     	; 0xe5c <i2c_get_order+0x8>
     e8e:	6f ef       	ldi	r22, 0xFF	; 255
     e90:	08 95       	ret

00000e92 <timer0_init>:
     e92:	e0 e0       	ldi	r30, 0x00	; 0
     e94:	fa e0       	ldi	r31, 0x0A	; 10
     e96:	81 e0       	ldi	r24, 0x01	; 1
     e98:	90 e0       	ldi	r25, 0x00	; 0
     e9a:	86 a3       	std	Z+38, r24	; 0x26
     e9c:	97 a3       	std	Z+39, r25	; 0x27
     e9e:	82 85       	ldd	r24, Z+10	; 0x0a
     ea0:	81 60       	ori	r24, 0x01	; 1
     ea2:	82 87       	std	Z+10, r24	; 0x0a
     ea4:	80 81       	ld	r24, Z
     ea6:	8d 60       	ori	r24, 0x0D	; 13
     ea8:	80 83       	st	Z, r24
     eaa:	08 95       	ret

00000eac <timer1_init>:
     eac:	e0 e8       	ldi	r30, 0x80	; 128
     eae:	fa e0       	ldi	r31, 0x0A	; 10
     eb0:	88 e0       	ldi	r24, 0x08	; 8
     eb2:	90 e0       	ldi	r25, 0x00	; 0
     eb4:	84 87       	std	Z+12, r24	; 0x0c
     eb6:	95 87       	std	Z+13, r25	; 0x0d
     eb8:	85 81       	ldd	r24, Z+5	; 0x05
     eba:	81 60       	ori	r24, 0x01	; 1
     ebc:	85 83       	std	Z+5, r24	; 0x05
     ebe:	80 81       	ld	r24, Z
     ec0:	85 60       	ori	r24, 0x05	; 5
     ec2:	80 83       	st	Z, r24
     ec4:	08 95       	ret

00000ec6 <__subsf3>:
     ec6:	50 58       	subi	r21, 0x80	; 128

00000ec8 <__addsf3>:
     ec8:	bb 27       	eor	r27, r27
     eca:	aa 27       	eor	r26, r26
     ecc:	0e 94 7b 07 	call	0xef6	; 0xef6 <__addsf3x>
     ed0:	0c 94 7c 08 	jmp	0x10f8	; 0x10f8 <__fp_round>
     ed4:	0e 94 6e 08 	call	0x10dc	; 0x10dc <__fp_pscA>
     ed8:	38 f0       	brcs	.+14     	; 0xee8 <__addsf3+0x20>
     eda:	0e 94 75 08 	call	0x10ea	; 0x10ea <__fp_pscB>
     ede:	20 f0       	brcs	.+8      	; 0xee8 <__addsf3+0x20>
     ee0:	39 f4       	brne	.+14     	; 0xef0 <__addsf3+0x28>
     ee2:	9f 3f       	cpi	r25, 0xFF	; 255
     ee4:	19 f4       	brne	.+6      	; 0xeec <__addsf3+0x24>
     ee6:	26 f4       	brtc	.+8      	; 0xef0 <__addsf3+0x28>
     ee8:	0c 94 6b 08 	jmp	0x10d6	; 0x10d6 <__fp_nan>
     eec:	0e f4       	brtc	.+2      	; 0xef0 <__addsf3+0x28>
     eee:	e0 95       	com	r30
     ef0:	e7 fb       	bst	r30, 7
     ef2:	0c 94 65 08 	jmp	0x10ca	; 0x10ca <__fp_inf>

00000ef6 <__addsf3x>:
     ef6:	e9 2f       	mov	r30, r25
     ef8:	0e 94 8d 08 	call	0x111a	; 0x111a <__fp_split3>
     efc:	58 f3       	brcs	.-42     	; 0xed4 <__addsf3+0xc>
     efe:	ba 17       	cp	r27, r26
     f00:	62 07       	cpc	r22, r18
     f02:	73 07       	cpc	r23, r19
     f04:	84 07       	cpc	r24, r20
     f06:	95 07       	cpc	r25, r21
     f08:	20 f0       	brcs	.+8      	; 0xf12 <__addsf3x+0x1c>
     f0a:	79 f4       	brne	.+30     	; 0xf2a <__addsf3x+0x34>
     f0c:	a6 f5       	brtc	.+104    	; 0xf76 <__addsf3x+0x80>
     f0e:	0c 94 af 08 	jmp	0x115e	; 0x115e <__fp_zero>
     f12:	0e f4       	brtc	.+2      	; 0xf16 <__addsf3x+0x20>
     f14:	e0 95       	com	r30
     f16:	0b 2e       	mov	r0, r27
     f18:	ba 2f       	mov	r27, r26
     f1a:	a0 2d       	mov	r26, r0
     f1c:	0b 01       	movw	r0, r22
     f1e:	b9 01       	movw	r22, r18
     f20:	90 01       	movw	r18, r0
     f22:	0c 01       	movw	r0, r24
     f24:	ca 01       	movw	r24, r20
     f26:	a0 01       	movw	r20, r0
     f28:	11 24       	eor	r1, r1
     f2a:	ff 27       	eor	r31, r31
     f2c:	59 1b       	sub	r21, r25
     f2e:	99 f0       	breq	.+38     	; 0xf56 <__addsf3x+0x60>
     f30:	59 3f       	cpi	r21, 0xF9	; 249
     f32:	50 f4       	brcc	.+20     	; 0xf48 <__addsf3x+0x52>
     f34:	50 3e       	cpi	r21, 0xE0	; 224
     f36:	68 f1       	brcs	.+90     	; 0xf92 <__addsf3x+0x9c>
     f38:	1a 16       	cp	r1, r26
     f3a:	f0 40       	sbci	r31, 0x00	; 0
     f3c:	a2 2f       	mov	r26, r18
     f3e:	23 2f       	mov	r18, r19
     f40:	34 2f       	mov	r19, r20
     f42:	44 27       	eor	r20, r20
     f44:	58 5f       	subi	r21, 0xF8	; 248
     f46:	f3 cf       	rjmp	.-26     	; 0xf2e <__addsf3x+0x38>
     f48:	46 95       	lsr	r20
     f4a:	37 95       	ror	r19
     f4c:	27 95       	ror	r18
     f4e:	a7 95       	ror	r26
     f50:	f0 40       	sbci	r31, 0x00	; 0
     f52:	53 95       	inc	r21
     f54:	c9 f7       	brne	.-14     	; 0xf48 <__addsf3x+0x52>
     f56:	7e f4       	brtc	.+30     	; 0xf76 <__addsf3x+0x80>
     f58:	1f 16       	cp	r1, r31
     f5a:	ba 0b       	sbc	r27, r26
     f5c:	62 0b       	sbc	r22, r18
     f5e:	73 0b       	sbc	r23, r19
     f60:	84 0b       	sbc	r24, r20
     f62:	ba f0       	brmi	.+46     	; 0xf92 <__addsf3x+0x9c>
     f64:	91 50       	subi	r25, 0x01	; 1
     f66:	a1 f0       	breq	.+40     	; 0xf90 <__addsf3x+0x9a>
     f68:	ff 0f       	add	r31, r31
     f6a:	bb 1f       	adc	r27, r27
     f6c:	66 1f       	adc	r22, r22
     f6e:	77 1f       	adc	r23, r23
     f70:	88 1f       	adc	r24, r24
     f72:	c2 f7       	brpl	.-16     	; 0xf64 <__addsf3x+0x6e>
     f74:	0e c0       	rjmp	.+28     	; 0xf92 <__addsf3x+0x9c>
     f76:	ba 0f       	add	r27, r26
     f78:	62 1f       	adc	r22, r18
     f7a:	73 1f       	adc	r23, r19
     f7c:	84 1f       	adc	r24, r20
     f7e:	48 f4       	brcc	.+18     	; 0xf92 <__addsf3x+0x9c>
     f80:	87 95       	ror	r24
     f82:	77 95       	ror	r23
     f84:	67 95       	ror	r22
     f86:	b7 95       	ror	r27
     f88:	f7 95       	ror	r31
     f8a:	9e 3f       	cpi	r25, 0xFE	; 254
     f8c:	08 f0       	brcs	.+2      	; 0xf90 <__addsf3x+0x9a>
     f8e:	b0 cf       	rjmp	.-160    	; 0xef0 <__addsf3+0x28>
     f90:	93 95       	inc	r25
     f92:	88 0f       	add	r24, r24
     f94:	08 f0       	brcs	.+2      	; 0xf98 <__addsf3x+0xa2>
     f96:	99 27       	eor	r25, r25
     f98:	ee 0f       	add	r30, r30
     f9a:	97 95       	ror	r25
     f9c:	87 95       	ror	r24
     f9e:	08 95       	ret

00000fa0 <__cmpsf2>:
     fa0:	0e 94 41 08 	call	0x1082	; 0x1082 <__fp_cmp>
     fa4:	08 f4       	brcc	.+2      	; 0xfa8 <__cmpsf2+0x8>
     fa6:	81 e0       	ldi	r24, 0x01	; 1
     fa8:	08 95       	ret

00000faa <__fixunssfsi>:
     faa:	0e 94 95 08 	call	0x112a	; 0x112a <__fp_splitA>
     fae:	88 f0       	brcs	.+34     	; 0xfd2 <__fixunssfsi+0x28>
     fb0:	9f 57       	subi	r25, 0x7F	; 127
     fb2:	98 f0       	brcs	.+38     	; 0xfda <__fixunssfsi+0x30>
     fb4:	b9 2f       	mov	r27, r25
     fb6:	99 27       	eor	r25, r25
     fb8:	b7 51       	subi	r27, 0x17	; 23
     fba:	b0 f0       	brcs	.+44     	; 0xfe8 <__fixunssfsi+0x3e>
     fbc:	e1 f0       	breq	.+56     	; 0xff6 <__fixunssfsi+0x4c>
     fbe:	66 0f       	add	r22, r22
     fc0:	77 1f       	adc	r23, r23
     fc2:	88 1f       	adc	r24, r24
     fc4:	99 1f       	adc	r25, r25
     fc6:	1a f0       	brmi	.+6      	; 0xfce <__fixunssfsi+0x24>
     fc8:	ba 95       	dec	r27
     fca:	c9 f7       	brne	.-14     	; 0xfbe <__fixunssfsi+0x14>
     fcc:	14 c0       	rjmp	.+40     	; 0xff6 <__fixunssfsi+0x4c>
     fce:	b1 30       	cpi	r27, 0x01	; 1
     fd0:	91 f0       	breq	.+36     	; 0xff6 <__fixunssfsi+0x4c>
     fd2:	0e 94 af 08 	call	0x115e	; 0x115e <__fp_zero>
     fd6:	b1 e0       	ldi	r27, 0x01	; 1
     fd8:	08 95       	ret
     fda:	0c 94 af 08 	jmp	0x115e	; 0x115e <__fp_zero>
     fde:	67 2f       	mov	r22, r23
     fe0:	78 2f       	mov	r23, r24
     fe2:	88 27       	eor	r24, r24
     fe4:	b8 5f       	subi	r27, 0xF8	; 248
     fe6:	39 f0       	breq	.+14     	; 0xff6 <__fixunssfsi+0x4c>
     fe8:	b9 3f       	cpi	r27, 0xF9	; 249
     fea:	cc f3       	brlt	.-14     	; 0xfde <__fixunssfsi+0x34>
     fec:	86 95       	lsr	r24
     fee:	77 95       	ror	r23
     ff0:	67 95       	ror	r22
     ff2:	b3 95       	inc	r27
     ff4:	d9 f7       	brne	.-10     	; 0xfec <__fixunssfsi+0x42>
     ff6:	3e f4       	brtc	.+14     	; 0x1006 <__fixunssfsi+0x5c>
     ff8:	90 95       	com	r25
     ffa:	80 95       	com	r24
     ffc:	70 95       	com	r23
     ffe:	61 95       	neg	r22
    1000:	7f 4f       	sbci	r23, 0xFF	; 255
    1002:	8f 4f       	sbci	r24, 0xFF	; 255
    1004:	9f 4f       	sbci	r25, 0xFF	; 255
    1006:	08 95       	ret

00001008 <__floatunsisf>:
    1008:	e8 94       	clt
    100a:	09 c0       	rjmp	.+18     	; 0x101e <__floatsisf+0x12>

0000100c <__floatsisf>:
    100c:	97 fb       	bst	r25, 7
    100e:	3e f4       	brtc	.+14     	; 0x101e <__floatsisf+0x12>
    1010:	90 95       	com	r25
    1012:	80 95       	com	r24
    1014:	70 95       	com	r23
    1016:	61 95       	neg	r22
    1018:	7f 4f       	sbci	r23, 0xFF	; 255
    101a:	8f 4f       	sbci	r24, 0xFF	; 255
    101c:	9f 4f       	sbci	r25, 0xFF	; 255
    101e:	99 23       	and	r25, r25
    1020:	a9 f0       	breq	.+42     	; 0x104c <__floatsisf+0x40>
    1022:	f9 2f       	mov	r31, r25
    1024:	96 e9       	ldi	r25, 0x96	; 150
    1026:	bb 27       	eor	r27, r27
    1028:	93 95       	inc	r25
    102a:	f6 95       	lsr	r31
    102c:	87 95       	ror	r24
    102e:	77 95       	ror	r23
    1030:	67 95       	ror	r22
    1032:	b7 95       	ror	r27
    1034:	f1 11       	cpse	r31, r1
    1036:	f8 cf       	rjmp	.-16     	; 0x1028 <__floatsisf+0x1c>
    1038:	fa f4       	brpl	.+62     	; 0x1078 <__floatsisf+0x6c>
    103a:	bb 0f       	add	r27, r27
    103c:	11 f4       	brne	.+4      	; 0x1042 <__floatsisf+0x36>
    103e:	60 ff       	sbrs	r22, 0
    1040:	1b c0       	rjmp	.+54     	; 0x1078 <__floatsisf+0x6c>
    1042:	6f 5f       	subi	r22, 0xFF	; 255
    1044:	7f 4f       	sbci	r23, 0xFF	; 255
    1046:	8f 4f       	sbci	r24, 0xFF	; 255
    1048:	9f 4f       	sbci	r25, 0xFF	; 255
    104a:	16 c0       	rjmp	.+44     	; 0x1078 <__floatsisf+0x6c>
    104c:	88 23       	and	r24, r24
    104e:	11 f0       	breq	.+4      	; 0x1054 <__floatsisf+0x48>
    1050:	96 e9       	ldi	r25, 0x96	; 150
    1052:	11 c0       	rjmp	.+34     	; 0x1076 <__floatsisf+0x6a>
    1054:	77 23       	and	r23, r23
    1056:	21 f0       	breq	.+8      	; 0x1060 <__floatsisf+0x54>
    1058:	9e e8       	ldi	r25, 0x8E	; 142
    105a:	87 2f       	mov	r24, r23
    105c:	76 2f       	mov	r23, r22
    105e:	05 c0       	rjmp	.+10     	; 0x106a <__floatsisf+0x5e>
    1060:	66 23       	and	r22, r22
    1062:	71 f0       	breq	.+28     	; 0x1080 <__floatsisf+0x74>
    1064:	96 e8       	ldi	r25, 0x86	; 134
    1066:	86 2f       	mov	r24, r22
    1068:	70 e0       	ldi	r23, 0x00	; 0
    106a:	60 e0       	ldi	r22, 0x00	; 0
    106c:	2a f0       	brmi	.+10     	; 0x1078 <__floatsisf+0x6c>
    106e:	9a 95       	dec	r25
    1070:	66 0f       	add	r22, r22
    1072:	77 1f       	adc	r23, r23
    1074:	88 1f       	adc	r24, r24
    1076:	da f7       	brpl	.-10     	; 0x106e <__floatsisf+0x62>
    1078:	88 0f       	add	r24, r24
    107a:	96 95       	lsr	r25
    107c:	87 95       	ror	r24
    107e:	97 f9       	bld	r25, 7
    1080:	08 95       	ret

00001082 <__fp_cmp>:
    1082:	99 0f       	add	r25, r25
    1084:	00 08       	sbc	r0, r0
    1086:	55 0f       	add	r21, r21
    1088:	aa 0b       	sbc	r26, r26
    108a:	e0 e8       	ldi	r30, 0x80	; 128
    108c:	fe ef       	ldi	r31, 0xFE	; 254
    108e:	16 16       	cp	r1, r22
    1090:	17 06       	cpc	r1, r23
    1092:	e8 07       	cpc	r30, r24
    1094:	f9 07       	cpc	r31, r25
    1096:	c0 f0       	brcs	.+48     	; 0x10c8 <__fp_cmp+0x46>
    1098:	12 16       	cp	r1, r18
    109a:	13 06       	cpc	r1, r19
    109c:	e4 07       	cpc	r30, r20
    109e:	f5 07       	cpc	r31, r21
    10a0:	98 f0       	brcs	.+38     	; 0x10c8 <__fp_cmp+0x46>
    10a2:	62 1b       	sub	r22, r18
    10a4:	73 0b       	sbc	r23, r19
    10a6:	84 0b       	sbc	r24, r20
    10a8:	95 0b       	sbc	r25, r21
    10aa:	39 f4       	brne	.+14     	; 0x10ba <__fp_cmp+0x38>
    10ac:	0a 26       	eor	r0, r26
    10ae:	61 f0       	breq	.+24     	; 0x10c8 <__fp_cmp+0x46>
    10b0:	23 2b       	or	r18, r19
    10b2:	24 2b       	or	r18, r20
    10b4:	25 2b       	or	r18, r21
    10b6:	21 f4       	brne	.+8      	; 0x10c0 <__fp_cmp+0x3e>
    10b8:	08 95       	ret
    10ba:	0a 26       	eor	r0, r26
    10bc:	09 f4       	brne	.+2      	; 0x10c0 <__fp_cmp+0x3e>
    10be:	a1 40       	sbci	r26, 0x01	; 1
    10c0:	a6 95       	lsr	r26
    10c2:	8f ef       	ldi	r24, 0xFF	; 255
    10c4:	81 1d       	adc	r24, r1
    10c6:	81 1d       	adc	r24, r1
    10c8:	08 95       	ret

000010ca <__fp_inf>:
    10ca:	97 f9       	bld	r25, 7
    10cc:	9f 67       	ori	r25, 0x7F	; 127
    10ce:	80 e8       	ldi	r24, 0x80	; 128
    10d0:	70 e0       	ldi	r23, 0x00	; 0
    10d2:	60 e0       	ldi	r22, 0x00	; 0
    10d4:	08 95       	ret

000010d6 <__fp_nan>:
    10d6:	9f ef       	ldi	r25, 0xFF	; 255
    10d8:	80 ec       	ldi	r24, 0xC0	; 192
    10da:	08 95       	ret

000010dc <__fp_pscA>:
    10dc:	00 24       	eor	r0, r0
    10de:	0a 94       	dec	r0
    10e0:	16 16       	cp	r1, r22
    10e2:	17 06       	cpc	r1, r23
    10e4:	18 06       	cpc	r1, r24
    10e6:	09 06       	cpc	r0, r25
    10e8:	08 95       	ret

000010ea <__fp_pscB>:
    10ea:	00 24       	eor	r0, r0
    10ec:	0a 94       	dec	r0
    10ee:	12 16       	cp	r1, r18
    10f0:	13 06       	cpc	r1, r19
    10f2:	14 06       	cpc	r1, r20
    10f4:	05 06       	cpc	r0, r21
    10f6:	08 95       	ret

000010f8 <__fp_round>:
    10f8:	09 2e       	mov	r0, r25
    10fa:	03 94       	inc	r0
    10fc:	00 0c       	add	r0, r0
    10fe:	11 f4       	brne	.+4      	; 0x1104 <__fp_round+0xc>
    1100:	88 23       	and	r24, r24
    1102:	52 f0       	brmi	.+20     	; 0x1118 <__fp_round+0x20>
    1104:	bb 0f       	add	r27, r27
    1106:	40 f4       	brcc	.+16     	; 0x1118 <__fp_round+0x20>
    1108:	bf 2b       	or	r27, r31
    110a:	11 f4       	brne	.+4      	; 0x1110 <__fp_round+0x18>
    110c:	60 ff       	sbrs	r22, 0
    110e:	04 c0       	rjmp	.+8      	; 0x1118 <__fp_round+0x20>
    1110:	6f 5f       	subi	r22, 0xFF	; 255
    1112:	7f 4f       	sbci	r23, 0xFF	; 255
    1114:	8f 4f       	sbci	r24, 0xFF	; 255
    1116:	9f 4f       	sbci	r25, 0xFF	; 255
    1118:	08 95       	ret

0000111a <__fp_split3>:
    111a:	57 fd       	sbrc	r21, 7
    111c:	90 58       	subi	r25, 0x80	; 128
    111e:	44 0f       	add	r20, r20
    1120:	55 1f       	adc	r21, r21
    1122:	59 f0       	breq	.+22     	; 0x113a <__fp_splitA+0x10>
    1124:	5f 3f       	cpi	r21, 0xFF	; 255
    1126:	71 f0       	breq	.+28     	; 0x1144 <__fp_splitA+0x1a>
    1128:	47 95       	ror	r20

0000112a <__fp_splitA>:
    112a:	88 0f       	add	r24, r24
    112c:	97 fb       	bst	r25, 7
    112e:	99 1f       	adc	r25, r25
    1130:	61 f0       	breq	.+24     	; 0x114a <__fp_splitA+0x20>
    1132:	9f 3f       	cpi	r25, 0xFF	; 255
    1134:	79 f0       	breq	.+30     	; 0x1154 <__fp_splitA+0x2a>
    1136:	87 95       	ror	r24
    1138:	08 95       	ret
    113a:	12 16       	cp	r1, r18
    113c:	13 06       	cpc	r1, r19
    113e:	14 06       	cpc	r1, r20
    1140:	55 1f       	adc	r21, r21
    1142:	f2 cf       	rjmp	.-28     	; 0x1128 <__fp_split3+0xe>
    1144:	46 95       	lsr	r20
    1146:	f1 df       	rcall	.-30     	; 0x112a <__fp_splitA>
    1148:	08 c0       	rjmp	.+16     	; 0x115a <__fp_splitA+0x30>
    114a:	16 16       	cp	r1, r22
    114c:	17 06       	cpc	r1, r23
    114e:	18 06       	cpc	r1, r24
    1150:	99 1f       	adc	r25, r25
    1152:	f1 cf       	rjmp	.-30     	; 0x1136 <__fp_splitA+0xc>
    1154:	86 95       	lsr	r24
    1156:	71 05       	cpc	r23, r1
    1158:	61 05       	cpc	r22, r1
    115a:	08 94       	sec
    115c:	08 95       	ret

0000115e <__fp_zero>:
    115e:	e8 94       	clt

00001160 <__fp_szero>:
    1160:	bb 27       	eor	r27, r27
    1162:	66 27       	eor	r22, r22
    1164:	77 27       	eor	r23, r23
    1166:	cb 01       	movw	r24, r22
    1168:	97 f9       	bld	r25, 7
    116a:	08 95       	ret

0000116c <__mulsf3>:
    116c:	0e 94 c9 08 	call	0x1192	; 0x1192 <__mulsf3x>
    1170:	0c 94 7c 08 	jmp	0x10f8	; 0x10f8 <__fp_round>
    1174:	0e 94 6e 08 	call	0x10dc	; 0x10dc <__fp_pscA>
    1178:	38 f0       	brcs	.+14     	; 0x1188 <__mulsf3+0x1c>
    117a:	0e 94 75 08 	call	0x10ea	; 0x10ea <__fp_pscB>
    117e:	20 f0       	brcs	.+8      	; 0x1188 <__mulsf3+0x1c>
    1180:	95 23       	and	r25, r21
    1182:	11 f0       	breq	.+4      	; 0x1188 <__mulsf3+0x1c>
    1184:	0c 94 65 08 	jmp	0x10ca	; 0x10ca <__fp_inf>
    1188:	0c 94 6b 08 	jmp	0x10d6	; 0x10d6 <__fp_nan>
    118c:	11 24       	eor	r1, r1
    118e:	0c 94 b0 08 	jmp	0x1160	; 0x1160 <__fp_szero>

00001192 <__mulsf3x>:
    1192:	0e 94 8d 08 	call	0x111a	; 0x111a <__fp_split3>
    1196:	70 f3       	brcs	.-36     	; 0x1174 <__mulsf3+0x8>

00001198 <__mulsf3_pse>:
    1198:	95 9f       	mul	r25, r21
    119a:	c1 f3       	breq	.-16     	; 0x118c <__mulsf3+0x20>
    119c:	95 0f       	add	r25, r21
    119e:	50 e0       	ldi	r21, 0x00	; 0
    11a0:	55 1f       	adc	r21, r21
    11a2:	62 9f       	mul	r22, r18
    11a4:	f0 01       	movw	r30, r0
    11a6:	72 9f       	mul	r23, r18
    11a8:	bb 27       	eor	r27, r27
    11aa:	f0 0d       	add	r31, r0
    11ac:	b1 1d       	adc	r27, r1
    11ae:	63 9f       	mul	r22, r19
    11b0:	aa 27       	eor	r26, r26
    11b2:	f0 0d       	add	r31, r0
    11b4:	b1 1d       	adc	r27, r1
    11b6:	aa 1f       	adc	r26, r26
    11b8:	64 9f       	mul	r22, r20
    11ba:	66 27       	eor	r22, r22
    11bc:	b0 0d       	add	r27, r0
    11be:	a1 1d       	adc	r26, r1
    11c0:	66 1f       	adc	r22, r22
    11c2:	82 9f       	mul	r24, r18
    11c4:	22 27       	eor	r18, r18
    11c6:	b0 0d       	add	r27, r0
    11c8:	a1 1d       	adc	r26, r1
    11ca:	62 1f       	adc	r22, r18
    11cc:	73 9f       	mul	r23, r19
    11ce:	b0 0d       	add	r27, r0
    11d0:	a1 1d       	adc	r26, r1
    11d2:	62 1f       	adc	r22, r18
    11d4:	83 9f       	mul	r24, r19
    11d6:	a0 0d       	add	r26, r0
    11d8:	61 1d       	adc	r22, r1
    11da:	22 1f       	adc	r18, r18
    11dc:	74 9f       	mul	r23, r20
    11de:	33 27       	eor	r19, r19
    11e0:	a0 0d       	add	r26, r0
    11e2:	61 1d       	adc	r22, r1
    11e4:	23 1f       	adc	r18, r19
    11e6:	84 9f       	mul	r24, r20
    11e8:	60 0d       	add	r22, r0
    11ea:	21 1d       	adc	r18, r1
    11ec:	82 2f       	mov	r24, r18
    11ee:	76 2f       	mov	r23, r22
    11f0:	6a 2f       	mov	r22, r26
    11f2:	11 24       	eor	r1, r1
    11f4:	9f 57       	subi	r25, 0x7F	; 127
    11f6:	50 40       	sbci	r21, 0x00	; 0
    11f8:	9a f0       	brmi	.+38     	; 0x1220 <__mulsf3_pse+0x88>
    11fa:	f1 f0       	breq	.+60     	; 0x1238 <__mulsf3_pse+0xa0>
    11fc:	88 23       	and	r24, r24
    11fe:	4a f0       	brmi	.+18     	; 0x1212 <__mulsf3_pse+0x7a>
    1200:	ee 0f       	add	r30, r30
    1202:	ff 1f       	adc	r31, r31
    1204:	bb 1f       	adc	r27, r27
    1206:	66 1f       	adc	r22, r22
    1208:	77 1f       	adc	r23, r23
    120a:	88 1f       	adc	r24, r24
    120c:	91 50       	subi	r25, 0x01	; 1
    120e:	50 40       	sbci	r21, 0x00	; 0
    1210:	a9 f7       	brne	.-22     	; 0x11fc <__mulsf3_pse+0x64>
    1212:	9e 3f       	cpi	r25, 0xFE	; 254
    1214:	51 05       	cpc	r21, r1
    1216:	80 f0       	brcs	.+32     	; 0x1238 <__mulsf3_pse+0xa0>
    1218:	0c 94 65 08 	jmp	0x10ca	; 0x10ca <__fp_inf>
    121c:	0c 94 b0 08 	jmp	0x1160	; 0x1160 <__fp_szero>
    1220:	5f 3f       	cpi	r21, 0xFF	; 255
    1222:	e4 f3       	brlt	.-8      	; 0x121c <__mulsf3_pse+0x84>
    1224:	98 3e       	cpi	r25, 0xE8	; 232
    1226:	d4 f3       	brlt	.-12     	; 0x121c <__mulsf3_pse+0x84>
    1228:	86 95       	lsr	r24
    122a:	77 95       	ror	r23
    122c:	67 95       	ror	r22
    122e:	b7 95       	ror	r27
    1230:	f7 95       	ror	r31
    1232:	e7 95       	ror	r30
    1234:	9f 5f       	subi	r25, 0xFF	; 255
    1236:	c1 f7       	brne	.-16     	; 0x1228 <__mulsf3_pse+0x90>
    1238:	fe 2b       	or	r31, r30
    123a:	88 0f       	add	r24, r24
    123c:	91 1d       	adc	r25, r1
    123e:	96 95       	lsr	r25
    1240:	87 95       	ror	r24
    1242:	97 f9       	bld	r25, 7
    1244:	08 95       	ret

00001246 <__udivmodqi4>:
    1246:	99 1b       	sub	r25, r25
    1248:	79 e0       	ldi	r23, 0x09	; 9
    124a:	04 c0       	rjmp	.+8      	; 0x1254 <__udivmodqi4_ep>

0000124c <__udivmodqi4_loop>:
    124c:	99 1f       	adc	r25, r25
    124e:	96 17       	cp	r25, r22
    1250:	08 f0       	brcs	.+2      	; 0x1254 <__udivmodqi4_ep>
    1252:	96 1b       	sub	r25, r22

00001254 <__udivmodqi4_ep>:
    1254:	88 1f       	adc	r24, r24
    1256:	7a 95       	dec	r23
    1258:	c9 f7       	brne	.-14     	; 0x124c <__udivmodqi4_loop>
    125a:	80 95       	com	r24
    125c:	08 95       	ret

0000125e <__tablejump2__>:
    125e:	ee 0f       	add	r30, r30
    1260:	ff 1f       	adc	r31, r31
    1262:	05 90       	lpm	r0, Z+
    1264:	f4 91       	lpm	r31, Z
    1266:	e0 2d       	mov	r30, r0
    1268:	09 94       	ijmp

0000126a <swapfunc>:
    126a:	dc 01       	movw	r26, r24
    126c:	fb 01       	movw	r30, r22
    126e:	8c 91       	ld	r24, X
    1270:	90 81       	ld	r25, Z
    1272:	9d 93       	st	X+, r25
    1274:	81 93       	st	Z+, r24
    1276:	41 50       	subi	r20, 0x01	; 1
    1278:	51 09       	sbc	r21, r1
    127a:	14 16       	cp	r1, r20
    127c:	15 06       	cpc	r1, r21
    127e:	bc f3       	brlt	.-18     	; 0x126e <swapfunc+0x4>
    1280:	08 95       	ret

00001282 <med3>:
    1282:	a0 e0       	ldi	r26, 0x00	; 0
    1284:	b0 e0       	ldi	r27, 0x00	; 0
    1286:	e7 e4       	ldi	r30, 0x47	; 71
    1288:	f9 e0       	ldi	r31, 0x09	; 9
    128a:	0c 94 3e 0b 	jmp	0x167c	; 0x167c <__prologue_saves__+0x14>
    128e:	7c 01       	movw	r14, r24
    1290:	6b 01       	movw	r12, r22
    1292:	d4 2f       	mov	r29, r20
    1294:	c5 2f       	mov	r28, r21
    1296:	89 01       	movw	r16, r18
    1298:	f9 01       	movw	r30, r18
    129a:	09 95       	icall
    129c:	6d 2f       	mov	r22, r29
    129e:	7c 2f       	mov	r23, r28
    12a0:	97 ff       	sbrs	r25, 7
    12a2:	10 c0       	rjmp	.+32     	; 0x12c4 <med3+0x42>
    12a4:	c6 01       	movw	r24, r12
    12a6:	f8 01       	movw	r30, r16
    12a8:	09 95       	icall
    12aa:	97 ff       	sbrs	r25, 7
    12ac:	02 c0       	rjmp	.+4      	; 0x12b2 <med3+0x30>
    12ae:	c6 01       	movw	r24, r12
    12b0:	18 c0       	rjmp	.+48     	; 0x12e2 <med3+0x60>
    12b2:	6d 2f       	mov	r22, r29
    12b4:	7c 2f       	mov	r23, r28
    12b6:	c7 01       	movw	r24, r14
    12b8:	f8 01       	movw	r30, r16
    12ba:	09 95       	icall
    12bc:	97 fd       	sbrc	r25, 7
    12be:	0f c0       	rjmp	.+30     	; 0x12de <med3+0x5c>
    12c0:	c7 01       	movw	r24, r14
    12c2:	0f c0       	rjmp	.+30     	; 0x12e2 <med3+0x60>
    12c4:	c6 01       	movw	r24, r12
    12c6:	f8 01       	movw	r30, r16
    12c8:	09 95       	icall
    12ca:	18 16       	cp	r1, r24
    12cc:	19 06       	cpc	r1, r25
    12ce:	7c f3       	brlt	.-34     	; 0x12ae <med3+0x2c>
    12d0:	6d 2f       	mov	r22, r29
    12d2:	7c 2f       	mov	r23, r28
    12d4:	c7 01       	movw	r24, r14
    12d6:	f8 01       	movw	r30, r16
    12d8:	09 95       	icall
    12da:	97 fd       	sbrc	r25, 7
    12dc:	f1 cf       	rjmp	.-30     	; 0x12c0 <med3+0x3e>
    12de:	8d 2f       	mov	r24, r29
    12e0:	9c 2f       	mov	r25, r28
    12e2:	cd b7       	in	r28, 0x3d	; 61
    12e4:	de b7       	in	r29, 0x3e	; 62
    12e6:	e8 e0       	ldi	r30, 0x08	; 8
    12e8:	0c 94 57 0b 	jmp	0x16ae	; 0x16ae <__epilogue_restores__+0x14>

000012ec <qsort>:
    12ec:	aa e0       	ldi	r26, 0x0A	; 10
    12ee:	b0 e0       	ldi	r27, 0x00	; 0
    12f0:	ec e7       	ldi	r30, 0x7C	; 124
    12f2:	f9 e0       	ldi	r31, 0x09	; 9
    12f4:	0c 94 34 0b 	jmp	0x1668	; 0x1668 <__prologue_saves__>
    12f8:	8c 01       	movw	r16, r24
    12fa:	7b 01       	movw	r14, r22
    12fc:	49 87       	std	Y+9, r20	; 0x09
    12fe:	5a 87       	std	Y+10, r21	; 0x0a
    1300:	69 01       	movw	r12, r18
    1302:	29 85       	ldd	r18, Y+9	; 0x09
    1304:	3a 85       	ldd	r19, Y+10	; 0x0a
    1306:	20 0f       	add	r18, r16
    1308:	31 1f       	adc	r19, r17
    130a:	29 83       	std	Y+1, r18	; 0x01
    130c:	3a 83       	std	Y+2, r19	; 0x02
    130e:	37 e0       	ldi	r19, 0x07	; 7
    1310:	e3 16       	cp	r14, r19
    1312:	f1 04       	cpc	r15, r1
    1314:	70 f5       	brcc	.+92     	; 0x1372 <qsort+0x86>
    1316:	69 80       	ldd	r6, Y+1	; 0x01
    1318:	7a 80       	ldd	r7, Y+2	; 0x02
    131a:	49 85       	ldd	r20, Y+9	; 0x09
    131c:	5a 85       	ldd	r21, Y+10	; 0x0a
    131e:	e4 9e       	mul	r14, r20
    1320:	50 01       	movw	r10, r0
    1322:	e5 9e       	mul	r14, r21
    1324:	b0 0c       	add	r11, r0
    1326:	f4 9e       	mul	r15, r20
    1328:	b0 0c       	add	r11, r0
    132a:	11 24       	eor	r1, r1
    132c:	a0 0e       	add	r10, r16
    132e:	b1 1e       	adc	r11, r17
    1330:	6a 14       	cp	r6, r10
    1332:	7b 04       	cpc	r7, r11
    1334:	08 f0       	brcs	.+2      	; 0x1338 <qsort+0x4c>
    1336:	7a c1       	rjmp	.+756    	; 0x162c <qsort+0x340>
    1338:	73 01       	movw	r14, r6
    133a:	0e 15       	cp	r16, r14
    133c:	1f 05       	cpc	r17, r15
    133e:	28 f0       	brcs	.+10     	; 0x134a <qsort+0x5e>
    1340:	89 85       	ldd	r24, Y+9	; 0x09
    1342:	9a 85       	ldd	r25, Y+10	; 0x0a
    1344:	68 0e       	add	r6, r24
    1346:	79 1e       	adc	r7, r25
    1348:	f3 cf       	rjmp	.-26     	; 0x1330 <qsort+0x44>
    134a:	47 01       	movw	r8, r14
    134c:	e9 85       	ldd	r30, Y+9	; 0x09
    134e:	fa 85       	ldd	r31, Y+10	; 0x0a
    1350:	8e 1a       	sub	r8, r30
    1352:	9f 0a       	sbc	r9, r31
    1354:	b7 01       	movw	r22, r14
    1356:	c4 01       	movw	r24, r8
    1358:	f6 01       	movw	r30, r12
    135a:	09 95       	icall
    135c:	18 16       	cp	r1, r24
    135e:	19 06       	cpc	r1, r25
    1360:	7c f7       	brge	.-34     	; 0x1340 <qsort+0x54>
    1362:	49 85       	ldd	r20, Y+9	; 0x09
    1364:	5a 85       	ldd	r21, Y+10	; 0x0a
    1366:	b4 01       	movw	r22, r8
    1368:	c7 01       	movw	r24, r14
    136a:	0e 94 35 09 	call	0x126a	; 0x126a <swapfunc>
    136e:	74 01       	movw	r14, r8
    1370:	e4 cf       	rjmp	.-56     	; 0x133a <qsort+0x4e>
    1372:	c7 01       	movw	r24, r14
    1374:	96 95       	lsr	r25
    1376:	87 95       	ror	r24
    1378:	29 85       	ldd	r18, Y+9	; 0x09
    137a:	3a 85       	ldd	r19, Y+10	; 0x0a
    137c:	82 9f       	mul	r24, r18
    137e:	50 01       	movw	r10, r0
    1380:	83 9f       	mul	r24, r19
    1382:	b0 0c       	add	r11, r0
    1384:	92 9f       	mul	r25, r18
    1386:	b0 0c       	add	r11, r0
    1388:	11 24       	eor	r1, r1
    138a:	a0 0e       	add	r10, r16
    138c:	b1 1e       	adc	r11, r17
    138e:	a7 01       	movw	r20, r14
    1390:	41 50       	subi	r20, 0x01	; 1
    1392:	51 09       	sbc	r21, r1
    1394:	4b 83       	std	Y+3, r20	; 0x03
    1396:	5c 83       	std	Y+4, r21	; 0x04
    1398:	57 e0       	ldi	r21, 0x07	; 7
    139a:	e5 16       	cp	r14, r21
    139c:	f1 04       	cpc	r15, r1
    139e:	09 f4       	brne	.+2      	; 0x13a2 <qsort+0xb6>
    13a0:	4c c0       	rjmp	.+152    	; 0x143a <qsort+0x14e>
    13a2:	8b 81       	ldd	r24, Y+3	; 0x03
    13a4:	9c 81       	ldd	r25, Y+4	; 0x04
    13a6:	82 9f       	mul	r24, r18
    13a8:	30 01       	movw	r6, r0
    13aa:	83 9f       	mul	r24, r19
    13ac:	70 0c       	add	r7, r0
    13ae:	92 9f       	mul	r25, r18
    13b0:	70 0c       	add	r7, r0
    13b2:	11 24       	eor	r1, r1
    13b4:	60 0e       	add	r6, r16
    13b6:	71 1e       	adc	r7, r17
    13b8:	99 e2       	ldi	r25, 0x29	; 41
    13ba:	e9 16       	cp	r14, r25
    13bc:	f1 04       	cpc	r15, r1
    13be:	a8 f1       	brcs	.+106    	; 0x142a <qsort+0x13e>
    13c0:	c7 01       	movw	r24, r14
    13c2:	43 e0       	ldi	r20, 0x03	; 3
    13c4:	96 95       	lsr	r25
    13c6:	87 95       	ror	r24
    13c8:	4a 95       	dec	r20
    13ca:	e1 f7       	brne	.-8      	; 0x13c4 <qsort+0xd8>
    13cc:	82 9f       	mul	r24, r18
    13ce:	40 01       	movw	r8, r0
    13d0:	83 9f       	mul	r24, r19
    13d2:	90 0c       	add	r9, r0
    13d4:	92 9f       	mul	r25, r18
    13d6:	90 0c       	add	r9, r0
    13d8:	11 24       	eor	r1, r1
    13da:	14 01       	movw	r2, r8
    13dc:	22 0c       	add	r2, r2
    13de:	33 1c       	adc	r3, r3
    13e0:	a8 01       	movw	r20, r16
    13e2:	42 0d       	add	r20, r2
    13e4:	53 1d       	adc	r21, r3
    13e6:	b8 01       	movw	r22, r16
    13e8:	68 0d       	add	r22, r8
    13ea:	79 1d       	adc	r23, r9
    13ec:	96 01       	movw	r18, r12
    13ee:	c8 01       	movw	r24, r16
    13f0:	0e 94 41 09 	call	0x1282	; 0x1282 <med3>
    13f4:	2c 01       	movw	r4, r24
    13f6:	a5 01       	movw	r20, r10
    13f8:	48 0d       	add	r20, r8
    13fa:	59 1d       	adc	r21, r9
    13fc:	91 94       	neg	r9
    13fe:	81 94       	neg	r8
    1400:	91 08       	sbc	r9, r1
    1402:	96 01       	movw	r18, r12
    1404:	b5 01       	movw	r22, r10
    1406:	c5 01       	movw	r24, r10
    1408:	88 0d       	add	r24, r8
    140a:	99 1d       	adc	r25, r9
    140c:	0e 94 41 09 	call	0x1282	; 0x1282 <med3>
    1410:	5c 01       	movw	r10, r24
    1412:	b3 01       	movw	r22, r6
    1414:	68 0d       	add	r22, r8
    1416:	79 1d       	adc	r23, r9
    1418:	96 01       	movw	r18, r12
    141a:	a3 01       	movw	r20, r6
    141c:	c3 01       	movw	r24, r6
    141e:	82 19       	sub	r24, r2
    1420:	93 09       	sbc	r25, r3
    1422:	0e 94 41 09 	call	0x1282	; 0x1282 <med3>
    1426:	3c 01       	movw	r6, r24
    1428:	01 c0       	rjmp	.+2      	; 0x142c <qsort+0x140>
    142a:	28 01       	movw	r4, r16
    142c:	96 01       	movw	r18, r12
    142e:	a3 01       	movw	r20, r6
    1430:	b5 01       	movw	r22, r10
    1432:	c2 01       	movw	r24, r4
    1434:	0e 94 41 09 	call	0x1282	; 0x1282 <med3>
    1438:	5c 01       	movw	r10, r24
    143a:	49 85       	ldd	r20, Y+9	; 0x09
    143c:	5a 85       	ldd	r21, Y+10	; 0x0a
    143e:	b5 01       	movw	r22, r10
    1440:	c8 01       	movw	r24, r16
    1442:	0e 94 35 09 	call	0x126a	; 0x126a <swapfunc>
    1446:	69 80       	ldd	r6, Y+1	; 0x01
    1448:	7a 80       	ldd	r7, Y+2	; 0x02
    144a:	2b 81       	ldd	r18, Y+3	; 0x03
    144c:	3c 81       	ldd	r19, Y+4	; 0x04
    144e:	49 85       	ldd	r20, Y+9	; 0x09
    1450:	5a 85       	ldd	r21, Y+10	; 0x0a
    1452:	24 9f       	mul	r18, r20
    1454:	f0 01       	movw	r30, r0
    1456:	25 9f       	mul	r18, r21
    1458:	f0 0d       	add	r31, r0
    145a:	34 9f       	mul	r19, r20
    145c:	f0 0d       	add	r31, r0
    145e:	11 24       	eor	r1, r1
    1460:	ed 83       	std	Y+5, r30	; 0x05
    1462:	fe 83       	std	Y+6, r31	; 0x06
    1464:	5f 01       	movw	r10, r30
    1466:	a0 0e       	add	r10, r16
    1468:	b1 1e       	adc	r11, r17
    146a:	46 0d       	add	r20, r6
    146c:	57 1d       	adc	r21, r7
    146e:	4b 83       	std	Y+3, r20	; 0x03
    1470:	5c 83       	std	Y+4, r21	; 0x04
    1472:	25 01       	movw	r4, r10
    1474:	13 01       	movw	r2, r6
    1476:	19 82       	std	Y+1, r1	; 0x01
    1478:	1a 82       	std	Y+2, r1	; 0x02
    147a:	8b 80       	ldd	r8, Y+3	; 0x03
    147c:	9c 80       	ldd	r9, Y+4	; 0x04
    147e:	89 85       	ldd	r24, Y+9	; 0x09
    1480:	9a 85       	ldd	r25, Y+10	; 0x0a
    1482:	88 1a       	sub	r8, r24
    1484:	99 0a       	sbc	r9, r25
    1486:	a8 14       	cp	r10, r8
    1488:	b9 04       	cpc	r11, r9
    148a:	08 f4       	brcc	.+2      	; 0x148e <qsort+0x1a2>
    148c:	50 c0       	rjmp	.+160    	; 0x152e <qsort+0x242>
    148e:	b8 01       	movw	r22, r16
    1490:	c4 01       	movw	r24, r8
    1492:	f6 01       	movw	r30, r12
    1494:	09 95       	icall
    1496:	18 16       	cp	r1, r24
    1498:	19 06       	cpc	r1, r25
    149a:	c4 f1       	brlt	.+112    	; 0x150c <qsort+0x220>
    149c:	89 2b       	or	r24, r25
    149e:	71 f4       	brne	.+28     	; 0x14bc <qsort+0x1d0>
    14a0:	49 85       	ldd	r20, Y+9	; 0x09
    14a2:	5a 85       	ldd	r21, Y+10	; 0x0a
    14a4:	b4 01       	movw	r22, r8
    14a6:	c1 01       	movw	r24, r2
    14a8:	0e 94 35 09 	call	0x126a	; 0x126a <swapfunc>
    14ac:	89 85       	ldd	r24, Y+9	; 0x09
    14ae:	9a 85       	ldd	r25, Y+10	; 0x0a
    14b0:	28 0e       	add	r2, r24
    14b2:	39 1e       	adc	r3, r25
    14b4:	e1 e0       	ldi	r30, 0x01	; 1
    14b6:	f0 e0       	ldi	r31, 0x00	; 0
    14b8:	e9 83       	std	Y+1, r30	; 0x01
    14ba:	fa 83       	std	Y+2, r31	; 0x02
    14bc:	2b 81       	ldd	r18, Y+3	; 0x03
    14be:	3c 81       	ldd	r19, Y+4	; 0x04
    14c0:	49 85       	ldd	r20, Y+9	; 0x09
    14c2:	5a 85       	ldd	r21, Y+10	; 0x0a
    14c4:	24 0f       	add	r18, r20
    14c6:	35 1f       	adc	r19, r21
    14c8:	2b 83       	std	Y+3, r18	; 0x03
    14ca:	3c 83       	std	Y+4, r19	; 0x04
    14cc:	d6 cf       	rjmp	.-84     	; 0x147a <qsort+0x18e>
    14ce:	b8 01       	movw	r22, r16
    14d0:	c5 01       	movw	r24, r10
    14d2:	f6 01       	movw	r30, r12
    14d4:	09 95       	icall
    14d6:	95 01       	movw	r18, r10
    14d8:	49 85       	ldd	r20, Y+9	; 0x09
    14da:	5a 85       	ldd	r21, Y+10	; 0x0a
    14dc:	24 1b       	sub	r18, r20
    14de:	35 0b       	sbc	r19, r21
    14e0:	2f 83       	std	Y+7, r18	; 0x07
    14e2:	38 87       	std	Y+8, r19	; 0x08
    14e4:	97 fd       	sbrc	r25, 7
    14e6:	16 c0       	rjmp	.+44     	; 0x1514 <qsort+0x228>
    14e8:	89 2b       	or	r24, r25
    14ea:	71 f4       	brne	.+28     	; 0x1508 <qsort+0x21c>
    14ec:	49 85       	ldd	r20, Y+9	; 0x09
    14ee:	5a 85       	ldd	r21, Y+10	; 0x0a
    14f0:	b2 01       	movw	r22, r4
    14f2:	c5 01       	movw	r24, r10
    14f4:	0e 94 35 09 	call	0x126a	; 0x126a <swapfunc>
    14f8:	29 85       	ldd	r18, Y+9	; 0x09
    14fa:	3a 85       	ldd	r19, Y+10	; 0x0a
    14fc:	42 1a       	sub	r4, r18
    14fe:	53 0a       	sbc	r5, r19
    1500:	41 e0       	ldi	r20, 0x01	; 1
    1502:	50 e0       	ldi	r21, 0x00	; 0
    1504:	49 83       	std	Y+1, r20	; 0x01
    1506:	5a 83       	std	Y+2, r21	; 0x02
    1508:	af 80       	ldd	r10, Y+7	; 0x07
    150a:	b8 84       	ldd	r11, Y+8	; 0x08
    150c:	a8 14       	cp	r10, r8
    150e:	b9 04       	cpc	r11, r9
    1510:	f0 f6       	brcc	.-68     	; 0x14ce <qsort+0x1e2>
    1512:	0d c0       	rjmp	.+26     	; 0x152e <qsort+0x242>
    1514:	49 85       	ldd	r20, Y+9	; 0x09
    1516:	5a 85       	ldd	r21, Y+10	; 0x0a
    1518:	b5 01       	movw	r22, r10
    151a:	c4 01       	movw	r24, r8
    151c:	0e 94 35 09 	call	0x126a	; 0x126a <swapfunc>
    1520:	af 80       	ldd	r10, Y+7	; 0x07
    1522:	b8 84       	ldd	r11, Y+8	; 0x08
    1524:	41 e0       	ldi	r20, 0x01	; 1
    1526:	50 e0       	ldi	r21, 0x00	; 0
    1528:	49 83       	std	Y+1, r20	; 0x01
    152a:	5a 83       	std	Y+2, r21	; 0x02
    152c:	c7 cf       	rjmp	.-114    	; 0x14bc <qsort+0x1d0>
    152e:	89 81       	ldd	r24, Y+1	; 0x01
    1530:	9a 81       	ldd	r25, Y+2	; 0x02
    1532:	89 2b       	or	r24, r25
    1534:	09 f4       	brne	.+2      	; 0x1538 <qsort+0x24c>
    1536:	4f c0       	rjmp	.+158    	; 0x15d6 <qsort+0x2ea>
    1538:	6d 80       	ldd	r6, Y+5	; 0x05
    153a:	7e 80       	ldd	r7, Y+6	; 0x06
    153c:	29 85       	ldd	r18, Y+9	; 0x09
    153e:	3a 85       	ldd	r19, Y+10	; 0x0a
    1540:	62 0e       	add	r6, r18
    1542:	73 1e       	adc	r7, r19
    1544:	60 0e       	add	r6, r16
    1546:	71 1e       	adc	r7, r17
    1548:	74 01       	movw	r14, r8
    154a:	e2 18       	sub	r14, r2
    154c:	f3 08       	sbc	r15, r3
    154e:	a1 01       	movw	r20, r2
    1550:	40 1b       	sub	r20, r16
    1552:	51 0b       	sbc	r21, r17
    1554:	e4 16       	cp	r14, r20
    1556:	f5 06       	cpc	r15, r21
    1558:	0c f4       	brge	.+2      	; 0x155c <qsort+0x270>
    155a:	a7 01       	movw	r20, r14
    155c:	14 16       	cp	r1, r20
    155e:	15 06       	cpc	r1, r21
    1560:	34 f4       	brge	.+12     	; 0x156e <qsort+0x282>
    1562:	b4 01       	movw	r22, r8
    1564:	64 1b       	sub	r22, r20
    1566:	75 0b       	sbc	r23, r21
    1568:	c8 01       	movw	r24, r16
    156a:	0e 94 35 09 	call	0x126a	; 0x126a <swapfunc>
    156e:	a2 01       	movw	r20, r4
    1570:	4a 19       	sub	r20, r10
    1572:	5b 09       	sbc	r21, r11
    1574:	5a 01       	movw	r10, r20
    1576:	a3 01       	movw	r20, r6
    1578:	44 19       	sub	r20, r4
    157a:	55 09       	sbc	r21, r5
    157c:	89 85       	ldd	r24, Y+9	; 0x09
    157e:	9a 85       	ldd	r25, Y+10	; 0x0a
    1580:	48 1b       	sub	r20, r24
    1582:	59 0b       	sbc	r21, r25
    1584:	a4 16       	cp	r10, r20
    1586:	b5 06       	cpc	r11, r21
    1588:	08 f4       	brcc	.+2      	; 0x158c <qsort+0x2a0>
    158a:	a5 01       	movw	r20, r10
    158c:	14 16       	cp	r1, r20
    158e:	15 06       	cpc	r1, r21
    1590:	34 f4       	brge	.+12     	; 0x159e <qsort+0x2b2>
    1592:	b3 01       	movw	r22, r6
    1594:	64 1b       	sub	r22, r20
    1596:	75 0b       	sbc	r23, r21
    1598:	c4 01       	movw	r24, r8
    159a:	0e 94 35 09 	call	0x126a	; 0x126a <swapfunc>
    159e:	e9 85       	ldd	r30, Y+9	; 0x09
    15a0:	fa 85       	ldd	r31, Y+10	; 0x0a
    15a2:	ee 15       	cp	r30, r14
    15a4:	ff 05       	cpc	r31, r15
    15a6:	48 f4       	brcc	.+18     	; 0x15ba <qsort+0x2ce>
    15a8:	c7 01       	movw	r24, r14
    15aa:	bf 01       	movw	r22, r30
    15ac:	0e 94 20 0b 	call	0x1640	; 0x1640 <__udivmodhi4>
    15b0:	96 01       	movw	r18, r12
    15b2:	af 01       	movw	r20, r30
    15b4:	c8 01       	movw	r24, r16
    15b6:	0e 94 76 09 	call	0x12ec	; 0x12ec <qsort>
    15ba:	29 85       	ldd	r18, Y+9	; 0x09
    15bc:	3a 85       	ldd	r19, Y+10	; 0x0a
    15be:	2a 15       	cp	r18, r10
    15c0:	3b 05       	cpc	r19, r11
    15c2:	a0 f5       	brcc	.+104    	; 0x162c <qsort+0x340>
    15c4:	83 01       	movw	r16, r6
    15c6:	0a 19       	sub	r16, r10
    15c8:	1b 09       	sbc	r17, r11
    15ca:	c5 01       	movw	r24, r10
    15cc:	b9 01       	movw	r22, r18
    15ce:	0e 94 20 0b 	call	0x1640	; 0x1640 <__udivmodhi4>
    15d2:	7b 01       	movw	r14, r22
    15d4:	96 ce       	rjmp	.-724    	; 0x1302 <qsort+0x16>
    15d6:	e9 85       	ldd	r30, Y+9	; 0x09
    15d8:	fa 85       	ldd	r31, Y+10	; 0x0a
    15da:	ee 9e       	mul	r14, r30
    15dc:	50 01       	movw	r10, r0
    15de:	ef 9e       	mul	r14, r31
    15e0:	b0 0c       	add	r11, r0
    15e2:	fe 9e       	mul	r15, r30
    15e4:	b0 0c       	add	r11, r0
    15e6:	11 24       	eor	r1, r1
    15e8:	a0 0e       	add	r10, r16
    15ea:	b1 1e       	adc	r11, r17
    15ec:	6a 14       	cp	r6, r10
    15ee:	7b 04       	cpc	r7, r11
    15f0:	e8 f4       	brcc	.+58     	; 0x162c <qsort+0x340>
    15f2:	73 01       	movw	r14, r6
    15f4:	0e 15       	cp	r16, r14
    15f6:	1f 05       	cpc	r17, r15
    15f8:	28 f0       	brcs	.+10     	; 0x1604 <qsort+0x318>
    15fa:	89 85       	ldd	r24, Y+9	; 0x09
    15fc:	9a 85       	ldd	r25, Y+10	; 0x0a
    15fe:	68 0e       	add	r6, r24
    1600:	79 1e       	adc	r7, r25
    1602:	f4 cf       	rjmp	.-24     	; 0x15ec <qsort+0x300>
    1604:	47 01       	movw	r8, r14
    1606:	e9 85       	ldd	r30, Y+9	; 0x09
    1608:	fa 85       	ldd	r31, Y+10	; 0x0a
    160a:	8e 1a       	sub	r8, r30
    160c:	9f 0a       	sbc	r9, r31
    160e:	b7 01       	movw	r22, r14
    1610:	c4 01       	movw	r24, r8
    1612:	f6 01       	movw	r30, r12
    1614:	09 95       	icall
    1616:	18 16       	cp	r1, r24
    1618:	19 06       	cpc	r1, r25
    161a:	7c f7       	brge	.-34     	; 0x15fa <qsort+0x30e>
    161c:	49 85       	ldd	r20, Y+9	; 0x09
    161e:	5a 85       	ldd	r21, Y+10	; 0x0a
    1620:	b4 01       	movw	r22, r8
    1622:	c7 01       	movw	r24, r14
    1624:	0e 94 35 09 	call	0x126a	; 0x126a <swapfunc>
    1628:	74 01       	movw	r14, r8
    162a:	e4 cf       	rjmp	.-56     	; 0x15f4 <qsort+0x308>
    162c:	2a 96       	adiw	r28, 0x0a	; 10
    162e:	e2 e1       	ldi	r30, 0x12	; 18
    1630:	0c 94 4d 0b 	jmp	0x169a	; 0x169a <__epilogue_restores__>

00001634 <ccp_write_io>:
    1634:	dc 01       	movw	r26, r24
    1636:	28 ed       	ldi	r18, 0xD8	; 216
    1638:	20 93 34 00 	sts	0x0034, r18	; 0x800034 <__RODATA_PM_OFFSET__+0x7f8034>
    163c:	6c 93       	st	X, r22
    163e:	08 95       	ret

00001640 <__udivmodhi4>:
    1640:	aa 1b       	sub	r26, r26
    1642:	bb 1b       	sub	r27, r27
    1644:	51 e1       	ldi	r21, 0x11	; 17
    1646:	07 c0       	rjmp	.+14     	; 0x1656 <__udivmodhi4_ep>

00001648 <__udivmodhi4_loop>:
    1648:	aa 1f       	adc	r26, r26
    164a:	bb 1f       	adc	r27, r27
    164c:	a6 17       	cp	r26, r22
    164e:	b7 07       	cpc	r27, r23
    1650:	10 f0       	brcs	.+4      	; 0x1656 <__udivmodhi4_ep>
    1652:	a6 1b       	sub	r26, r22
    1654:	b7 0b       	sbc	r27, r23

00001656 <__udivmodhi4_ep>:
    1656:	88 1f       	adc	r24, r24
    1658:	99 1f       	adc	r25, r25
    165a:	5a 95       	dec	r21
    165c:	a9 f7       	brne	.-22     	; 0x1648 <__udivmodhi4_loop>
    165e:	80 95       	com	r24
    1660:	90 95       	com	r25
    1662:	bc 01       	movw	r22, r24
    1664:	cd 01       	movw	r24, r26
    1666:	08 95       	ret

00001668 <__prologue_saves__>:
    1668:	2f 92       	push	r2
    166a:	3f 92       	push	r3
    166c:	4f 92       	push	r4
    166e:	5f 92       	push	r5
    1670:	6f 92       	push	r6
    1672:	7f 92       	push	r7
    1674:	8f 92       	push	r8
    1676:	9f 92       	push	r9
    1678:	af 92       	push	r10
    167a:	bf 92       	push	r11
    167c:	cf 92       	push	r12
    167e:	df 92       	push	r13
    1680:	ef 92       	push	r14
    1682:	ff 92       	push	r15
    1684:	0f 93       	push	r16
    1686:	1f 93       	push	r17
    1688:	cf 93       	push	r28
    168a:	df 93       	push	r29
    168c:	cd b7       	in	r28, 0x3d	; 61
    168e:	de b7       	in	r29, 0x3e	; 62
    1690:	ca 1b       	sub	r28, r26
    1692:	db 0b       	sbc	r29, r27
    1694:	cd bf       	out	0x3d, r28	; 61
    1696:	de bf       	out	0x3e, r29	; 62
    1698:	09 94       	ijmp

0000169a <__epilogue_restores__>:
    169a:	2a 88       	ldd	r2, Y+18	; 0x12
    169c:	39 88       	ldd	r3, Y+17	; 0x11
    169e:	48 88       	ldd	r4, Y+16	; 0x10
    16a0:	5f 84       	ldd	r5, Y+15	; 0x0f
    16a2:	6e 84       	ldd	r6, Y+14	; 0x0e
    16a4:	7d 84       	ldd	r7, Y+13	; 0x0d
    16a6:	8c 84       	ldd	r8, Y+12	; 0x0c
    16a8:	9b 84       	ldd	r9, Y+11	; 0x0b
    16aa:	aa 84       	ldd	r10, Y+10	; 0x0a
    16ac:	b9 84       	ldd	r11, Y+9	; 0x09
    16ae:	c8 84       	ldd	r12, Y+8	; 0x08
    16b0:	df 80       	ldd	r13, Y+7	; 0x07
    16b2:	ee 80       	ldd	r14, Y+6	; 0x06
    16b4:	fd 80       	ldd	r15, Y+5	; 0x05
    16b6:	0c 81       	ldd	r16, Y+4	; 0x04
    16b8:	1b 81       	ldd	r17, Y+3	; 0x03
    16ba:	aa 81       	ldd	r26, Y+2	; 0x02
    16bc:	b9 81       	ldd	r27, Y+1	; 0x01
    16be:	ce 0f       	add	r28, r30
    16c0:	d1 1d       	adc	r29, r1
    16c2:	cd bf       	out	0x3d, r28	; 61
    16c4:	de bf       	out	0x3e, r29	; 62
    16c6:	ed 01       	movw	r28, r26
    16c8:	08 95       	ret

000016ca <_exit>:
    16ca:	f8 94       	cli

000016cc <__stop_program>:
    16cc:	ff cf       	rjmp	.-2      	; 0x16cc <__stop_program>
